----------------
IN: 
0xfffffff0:  0f 20 c0                 movl     %cr0, %eax

----------------
IN: 
0xfffffff3:  a8 01                    testb    $1, %al

----------------
IN: 
0xfffffff5:  74 05                    je       0xfffc

----------------
IN: 
0xfffffffc:  e9 11 ff                 jmp      0xff10

----------------
IN: 
0xffffff10:  bf 42 50                 movw     $0x5042, %di

----------------
IN: 
0xffffff13:  eb 05                    jmp      0xff1a

----------------
IN: 
0xffffff1a:  eb f9                    jmp      0xff15

----------------
IN: 
0xffffff15:  66 89 c4                 movl     %eax, %esp

----------------
IN: 
0xffffff18:  eb 02                    jmp      0xff1c

----------------
IN: 
0xffffff1c:  e9 71 ff                 jmp      0xfe90

----------------
IN: 
0xfffffe90:  fa                       cli      

----------------
IN: 
0xfffffe91:  bb 00 f0                 movw     $0xf000, %bx

----------------
IN: 
0xfffffe94:  8e db                    movw     %bx, %ds

----------------
IN: 
0xfffffe96:  bb c8 fe                 movw     $0xfec8, %bx

----------------
IN: 
0xfffffe99:  2e 66 0f 01 17           lgdtl    %cs:(%bx)

----------------
IN: 
0xfffffe9e:  66 b8 23 00 00 00        movl     $0x23, %eax

----------------
IN: 
0xfffffea4:  0f 22 c0                 movl     %eax, %cr0

----------------
IN: 
0xfffffea7:  66 ea af fe ff ff 10 00  ljmpl    $0x10:$0xfffffeaf

----------------
IN: 
0xfffffeaf:  b8 40 06 00 00           movl     $0x640, %eax

----------------
IN: 
0xfffffeb4:  0f 22 e0                 movl     %eax, %cr4

----------------
IN: 
0xfffffeb7:  66 b8 18 00              movw     $0x18, %ax

----------------
IN: 
0xfffffebb:  8e d8                    movl     %eax, %ds

----------------
IN: 
0xfffffebd:  8e c0                    movl     %eax, %es

----------------
IN: 
0xfffffebf:  8e e0                    movl     %eax, %fs

----------------
IN: 
0xfffffec1:  8e e8                    movl     %eax, %gs

----------------
IN: 
0xfffffec3:  8e d0                    movl     %eax, %ss

----------------
IN: 
0xfffffec5:  eb 58                    jmp      0xffffff1f

----------------
IN: 
0xffffff1f:  c6 05 00 b0 80 00 00     movb     $0, 0x80b000

----------------
IN: 
0xffffff26:  eb 05                    jmp      0xffffff2d

----------------
IN: 
0xffffff2d:  e9 2e f7 ff ff           jmp      0xfffff660

----------------
IN: 
0xfffff660:  31 c0                    xorl     %eax, %eax

----------------
IN: 
0xfffff662:  2d 00 10 00 00           subl     $0x1000, %eax

----------------
IN: 
0xfffff667:  3d 00 00 00 ff           cmpl     $0xff000000, %eax

----------------
IN: 
0xfffff66c:  72 59                    jb       0xfffff6c7

----------------
IN: 
0xfffff66e:  81 78 10 7a c0 73 54     cmpl     $0x5473c07a, 0x10(%eax)

----------------
IN: 
0xfffff675:  75 1d                    jne      0xfffff694

----------------
IN: 
0xfffff694:  81 78 10 78 e5 8c 8c     cmpl     $0x8c8ce578, 0x10(%eax)

----------------
IN: 
0xfffff69b:  75 c5                    jne      0xfffff662

----------------
IN: 
0xfffff69d:  81 78 14 3d 8a 1c 4f     cmpl     $0x4f1c8a3d, 0x14(%eax)

----------------
IN: 
0xfffff6a4:  75 bc                    jne      0xfffff662

----------------
IN: 
0xfffff6a6:  81 78 18 99 35 89 61     cmpl     $0x61893599, 0x18(%eax)

----------------
IN: 
0xfffff6ad:  75 b3                    jne      0xfffff662

----------------
IN: 
0xfffff6af:  81 78 1c 85 c3 2d d3     cmpl     $0xd32dc385, 0x1c(%eax)

----------------
IN: 
0xfffff6b6:  75 aa                    jne      0xfffff662

----------------
IN: 
0xfffff6b8:  83 78 24 00              cmpl     $0, 0x24(%eax)

----------------
IN: 
0xfffff6bc:  75 a4                    jne      0xfffff662

----------------
IN: 
0xfffff6be:  89 c3                    movl     %eax, %ebx

----------------
IN: 
0xfffff6c0:  03 58 20                 addl     0x20(%eax), %ebx

----------------
IN: 
0xfffff6c3:  75 9d                    jne      0xfffff662

----------------
IN: 
0xfffff6c5:  eb 09                    jmp      0xfffff6d0

----------------
IN: 
0xfffff6d0:  89 c5                    movl     %eax, %ebp

----------------
IN: 
0xfffff6d2:  e9 5b 08 00 00           jmp      0xffffff32

----------------
IN: 
0xffffff32:  e9 a0 f7 ff ff           jmp      0xfffff6d7

----------------
IN: 
0xfffff6d7:  31 db                    xorl     %ebx, %ebx

----------------
IN: 
0xfffff6d9:  89 de                    movl     %ebx, %esi

----------------
IN: 
0xfffff6db:  89 e8                    movl     %ebp, %eax

----------------
IN: 
0xfffff6dd:  66 8b 5d 30              movw     0x30(%ebp), %bx

----------------
IN: 
0xfffff6e1:  01 d8                    addl     %ebx, %eax

----------------
IN: 
0xfffff6e3:  72 3b                    jb       0xfffff720

----------------
IN: 
0xfffff6e5:  eb 03                    jmp      0xfffff6ea

----------------
IN: 
0xfffff6ea:  85 c0                    testl    %eax, %eax

----------------
IN: 
0xfffff6ec:  74 32                    je       0xfffff720

----------------
IN: 
0xfffff6ee:  83 c0 07                 addl     $7, %eax

----------------
IN: 
0xfffff6f1:  72 2d                    jb       0xfffff720

----------------
IN: 
0xfffff6f3:  24 f8                    andb     $0xf8, %al

----------------
IN: 
0xfffff6f5:  8a 58 17                 movb     0x17(%eax), %bl

----------------
IN: 
0xfffff6f8:  f6 c3 20                 testb    $0x20, %bl

----------------
IN: 
0xfffff6fb:  74 ea                    je       0xfffff6e7

----------------
IN: 
0xfffff6fd:  8b 48 14                 movl     0x14(%eax), %ecx

----------------
IN: 
0xfffff700:  81 e1 ff ff ff 00        andl     $0xffffff, %ecx

----------------
IN: 
0xfffff706:  09 c9                    orl      %ecx, %ecx

----------------
IN: 
0xfffff708:  74 dd                    je       0xfffff6e7

----------------
IN: 
0xfffff70a:  01 c1                    addl     %eax, %ecx

----------------
IN: 
0xfffff70c:  74 02                    je       0xfffff710

----------------
IN: 
0xfffff70e:  72 d7                    jb       0xfffff6e7

----------------
IN: 
0xfffff710:  80 78 12 03              cmpb     $3, 0x12(%eax)

----------------
IN: 
0xfffff714:  75 06                    jne      0xfffff71c

----------------
IN: 
0xfffff71c:  89 c8                    movl     %ecx, %eax

----------------
IN: 
0xfffff71e:  eb ca                    jmp      0xfffff6ea

----------------
IN: 
0xfffff716:  eb 17                    jmp      0xfffff72f

----------------
IN: 
0xfffff72f:  85 c0                    testl    %eax, %eax

----------------
IN: 
0xfffff731:  74 5f                    je       0xfffff792

----------------
IN: 
0xfffff733:  83 c0 18                 addl     $0x18, %eax

----------------
IN: 
0xfffff736:  39 c8                    cmpl     %ecx, %eax

----------------
IN: 
0xfffff738:  73 58                    jae      0xfffff792

----------------
IN: 
0xfffff73a:  80 78 03 10              cmpb     $0x10, 3(%eax)

----------------
IN: 
0xfffff73e:  74 1b                    je       0xfffff75b

----------------
IN: 
0xfffff75b:  83 c0 04                 addl     $4, %eax

----------------
IN: 
0xfffff75e:  66 81 38 4d 5a           cmpw     $0x5a4d, (%eax)

----------------
IN: 
0xfffff763:  75 2d                    jne      0xfffff792

----------------
IN: 
0xfffff765:  0f b7 58 3c              movzwl   0x3c(%eax), %ebx

----------------
IN: 
0xfffff769:  01 c3                    addl     %eax, %ebx

----------------
IN: 
0xfffff76b:  81 3b 50 45 00 00        cmpl     $0x4550, (%ebx)

----------------
IN: 
0xfffff771:  75 1f                    jne      0xfffff792

----------------
IN: 
0xfffff773:  03 43 28                 addl     0x28(%ebx), %eax

----------------
IN: 
0xfffff776:  eb 1f                    jmp      0xfffff797

----------------
IN: 
0xfffff797:  e9 7c ff ff ff           jmp      0xfffff718

----------------
IN: 
0xfffff718:  85 c0                    testl    %eax, %eax

----------------
IN: 
0xfffff71a:  75 06                    jne      0xfffff722

----------------
IN: 
0xfffff722:  89 c6                    movl     %eax, %esi

----------------
IN: 
0xfffff724:  85 f6                    testl    %esi, %esi

----------------
IN: 
0xfffff726:  75 02                    jne      0xfffff72a

----------------
IN: 
0xfffff72a:  e9 08 08 00 00           jmp      0xffffff37

----------------
IN: 
0xffffff37:  e9 44 f9 ff ff           jmp      0xfffff880

----------------
IN: 
0xfffff880:  e9 89 00 00 00           jmp      0xfffff90e

----------------
IN: 
0xfffff90e:  e9 69 01 00 00           jmp      0xfffffa7c

----------------
IN: 
0xfffffa7c:  31 c0                    xorl     %eax, %eax

----------------
IN: 
0xfffffa7e:  80 3d 00 b0 80 00 02     cmpb     $2, 0x80b000

----------------
IN: 
0xfffffa85:  75 08                    jne      0xfffffa8f

----------------
IN: 
0xfffffa8f:  e9 7f fe ff ff           jmp      0xfffff913

----------------
IN: 
0xfffff913:  83 f8 01                 cmpl     $1, %eax

----------------
IN: 
0xfffff916:  74 13                    je       0xfffff92b

----------------
IN: 
0xfffff918:  83 f8 02                 cmpl     $2, %eax

----------------
IN: 
0xfffff91b:  0f 84 94 00 00 00        je       0xfffff9b5

----------------
IN: 
0xfffff921:  e9 7d 02 00 00           jmp      0xfffffba3

----------------
IN: 
0xfffffba3:  b9 19 00 00 00           movl     $0x19, %ecx

----------------
IN: 
0xfffffba8:  b8 04 b0 80 00           movl     $0x80b004, %eax

----------------
IN: 
0xfffffbad:  c6 00 00                 movb     $0, (%eax)

----------------
IN: 
0xfffffbb0:  40                       incl     %eax

----------------
IN: 
0xfffffbb1:  e2 fa                    loop     0xfffffbad

----------------
IN: 
0xfffffbb3:  bc 00 00 82 00           movl     $0x820000, %esp

----------------
IN: 
0xfffffbb8:  b8 7e fd ff ff           movl     $0xfffffd7e, %eax

----------------
IN: 
0xfffffbbd:  2e 0f 01 18              lidtl    %cs:(%eax)

----------------
IN: 
0xfffffbc1:  b8 00 00 00 80           movl     $0x80000000, %eax

----------------
IN: 
0xfffffbc6:  0f a2                    cpuid    

----------------
IN: 
0xfffffbc8:  3d 1f 00 00 80           cmpl     $0x8000001f, %eax

----------------
IN: 
0xfffffbcd:  7c 5e                    jl       0xfffffc2d

----------------
IN: 
0xfffffc2d:  80 3d 1c b0 80 00 00     cmpb     $0, 0x80b01c

----------------
IN: 
0xfffffc34:  74 04                    je       0xfffffc3a

----------------
IN: 
0xfffffc3a:  31 c0                    xorl     %eax, %eax

----------------
IN: 
0xfffffc3c:  50                       pushl    %eax

----------------
IN: 
0xfffffc3d:  b8 84 fd ff ff           movl     $0xfffffd84, %eax

----------------
IN: 
0xfffffc42:  2e 0f 01 18              lidtl    %cs:(%eax)

----------------
IN: 
0xfffffc46:  58                       popl     %eax

----------------
IN: 
0xfffffc47:  bc 00 00 00 00           movl     $0, %esp

----------------
IN: 
0xfffffc4c:  e9 d5 fc ff ff           jmp      0xfffff926

----------------
IN: 
0xfffff926:  e9 62 02 00 00           jmp      0xfffffb8d

----------------
IN: 
0xfffffb8d:  31 d2                    xorl     %edx, %edx

----------------
IN: 
0xfffffb8f:  80 3d 00 b0 80 00 01     cmpb     $1, 0x80b000

----------------
IN: 
0xfffffb96:  75 06                    jne      0xfffffb9e

----------------
IN: 
0xfffffb9e:  e9 88 fd ff ff           jmp      0xfffff92b

----------------
IN: 
0xfffff92b:  b9 00 18 00 00           movl     $0x1800, %ecx

----------------
IN: 
0xfffff930:  31 c0                    xorl     %eax, %eax

----------------
IN: 
0xfffff932:  89 04 8d fc ff 7f 00     movl     %eax, 0x7ffffc(, %ecx, 4)

----------------
IN: 
0xfffff939:  e2 f7                    loop     0xfffff932

----------------
IN: 
0xfffff93b:  c7 05 00 00 80 00 23 10  movl     $0x801023, 0x800000
0xfffff943:  80 00

----------------
IN: 
0xfffff945:  89 15 04 00 80 00        movl     %edx, 0x800004

----------------
IN: 
0xfffff94b:  c7 05 00 10 80 00 23 20  movl     $0x802023, 0x801000
0xfffff953:  80 00

----------------
IN: 
0xfffff955:  89 15 04 10 80 00        movl     %edx, 0x801004

----------------
IN: 
0xfffff95b:  c7 05 08 10 80 00 23 30  movl     $0x803023, 0x801008
0xfffff963:  80 00

----------------
IN: 
0xfffff965:  89 15 0c 10 80 00        movl     %edx, 0x80100c

----------------
IN: 
0xfffff96b:  c7 05 10 10 80 00 23 40  movl     $0x804023, 0x801010
0xfffff973:  80 00

----------------
IN: 
0xfffff975:  89 15 14 10 80 00        movl     %edx, 0x801014

----------------
IN: 
0xfffff97b:  c7 05 18 10 80 00 23 50  movl     $0x805023, 0x801018
0xfffff983:  80 00

----------------
IN: 
0xfffff985:  89 15 1c 10 80 00        movl     %edx, 0x80101c

----------------
IN: 
0xfffff98b:  b9 00 08 00 00           movl     $0x800, %ecx

----------------
IN: 
0xfffff990:  89 c8                    movl     %ecx, %eax

----------------
IN: 
0xfffff992:  48                       decl     %eax

----------------
IN: 
0xfffff993:  c1 e0 15                 shll     $0x15, %eax

----------------
IN: 
0xfffff996:  05 e3 00 00 00           addl     $0xe3, %eax

----------------
IN: 
0xfffff99b:  89 04 cd f8 1f 80 00     movl     %eax, 0x801ff8(, %ecx, 8)

----------------
IN: 
0xfffff9a2:  89 14 cd fc 1f 80 00     movl     %edx, 0x801ffc(, %ecx, 8)

----------------
IN: 
0xfffff9a9:  e2 e5                    loop     0xfffff990

----------------
IN: 
0xfffff9ab:  e9 7d 01 00 00           jmp      0xfffffb2d

----------------
IN: 
0xfffffb2d:  80 3d 00 b0 80 00 01     cmpb     $1, 0x80b000

----------------
IN: 
0xfffffb34:  75 52                    jne      0xfffffb88

----------------
IN: 
0xfffffb88:  e9 23 fe ff ff           jmp      0xfffff9b0

----------------
IN: 
0xfffff9b0:  e9 df 00 00 00           jmp      0xfffffa94

----------------
IN: 
0xfffffa94:  80 3d 00 b0 80 00 02     cmpb     $2, 0x80b000

----------------
IN: 
0xfffffa9b:  75 07                    jne      0xfffffaa4

----------------
IN: 
0xfffffaa4:  e9 0c ff ff ff           jmp      0xfffff9b5

----------------
IN: 
0xfffff9b5:  b8 00 00 80 00           movl     $0x800000, %eax

----------------
IN: 
0xfffff9ba:  0f 22 d8                 movl     %eax, %cr3

----------------
IN: 
0xfffff9bd:  e9 c3 fe ff ff           jmp      0xfffff885

----------------
IN: 
0xfffff885:  0f 20 e0                 movl     %cr4, %eax

----------------
IN: 
0xfffff888:  0f ba e8 05              btsl     $5, %eax

----------------
IN: 
0xfffff88c:  0f 22 e0                 movl     %eax, %cr4

----------------
IN: 
0xfffff88f:  31 db                    xorl     %ebx, %ebx

----------------
IN: 
0xfffff891:  e9 13 02 00 00           jmp      0xfffffaa9

----------------
IN: 
0xfffffaa9:  31 c0                    xorl     %eax, %eax

----------------
IN: 
0xfffffaab:  80 3d 00 b0 80 00 02     cmpb     $2, 0x80b000

----------------
IN: 
0xfffffab2:  75 05                    jne      0xfffffab9

----------------
IN: 
0xfffffab9:  e9 d8 fd ff ff           jmp      0xfffff896

----------------
IN: 
0xfffff896:  85 c0                    testl    %eax, %eax

----------------
IN: 
0xfffff898:  75 38                    jne      0xfffff8d2

----------------
IN: 
0xfffff89a:  b9 80 00 00 c0           movl     $0xc0000080, %ecx

----------------
IN: 
0xfffff89f:  0f 32                    rdmsr    

----------------
IN: 
0xfffff8a1:  0f ba e8 08              btsl     $8, %eax

----------------
IN: 
0xfffff8a5:  0f 30                    wrmsr    

----------------
IN: 
0xfffff8a7:  31 db                    xorl     %ebx, %ebx

----------------
IN: 
0xfffff8a9:  b9 01 00 00 00           movl     $1, %ecx

----------------
IN: 
0xfffff8ae:  0f a3 0d 04 b0 80 00     btl      %ecx, 0x80b004

----------------
IN: 
0xfffff8b5:  73 1b                    jae      0xfffff8d2

----------------
IN: 
0xfffff8d2:  0f 20 c0                 movl     %cr0, %eax

----------------
IN: 
0xfffff8d5:  0f ba e8 1f              btsl     $0x1f, %eax

----------------
IN: 
0xfffff8d9:  0f 22 c0                 movl     %eax, %cr0

----------------
IN: 
0xfffff8dc:  ea e3 f8 ff ff 38 00     ljmpl    $0x38:$0xfffff8e3

----------------
IN: 
0xfffff8e3:  85 db                    testl    %ebx, %ebx

----------------
IN: 
0xfffff8e5:  74 12                    je       0xfffff8f9

----------------
IN: 
0xfffff8f9:  81 3d f6 ff ff ff 81 3d  cmpl     $0xfff63d81, -0xa(%rip)
0xfffff901:  f6 ff

----------------
IN: 
0xfffff903:  74 04                    je       0xfffff909

----------------
IN: 
0xfffff909:  e9 2e 06 00 00           jmp      0xffffff3c

----------------
IN: 
0xffffff3c:  b8 ff ff ff ff           movl     $0xffffffff, %eax

----------------
IN: 
0xffffff41:  48 21 c6                 andq     %rax, %rsi

----------------
IN: 
0xffffff44:  48 21 c5                 andq     %rax, %rbp

----------------
IN: 
0xffffff47:  48 21 c4                 andq     %rax, %rsp

----------------
IN: 
0xffffff4a:  48 89 e0                 movq     %rsp, %rax

----------------
IN: 
0xffffff4d:  ff e6                    jmpq     *%rsi

----------------
IN: 
0xfffd8164:  b8 00 b0 80 00           movl     $0x80b000, %eax

----------------
IN: 
0xfffd8169:  67 80 38 02              cmpb     $2, (%eax)

----------------
IN: 
0xfffd816d:  75 1e                    jne      0xfffd818d

----------------
IN: 
0xfffd818d:  48 b8 a5 5a a5 5a a5 5a  movabsq  $0x5aa55aa55aa55aa5, %rax
0xfffd8195:  a5 5a

----------------
IN: 
0xfffd8197:  bf 00 00 81 00           movl     $0x810000, %edi

----------------
IN: 
0xfffd819c:  b9 00 20 00 00           movl     $0x2000, %ecx

----------------
IN: 
0xfffd81a1:  fc                       cld      

----------------
IN: 
0xfffd81a2:  f3 48 ab                 rep stosq %rax, (%rdi)

----------------
IN: 
0xfffd81a5:  bc 00 00 82 00           movl     $0x820000, %esp

----------------
IN: 
0xfffd81aa:  90                       nop      

----------------
IN: 
0xfffd81ab:  48 89 e9                 movq     %rbp, %rcx

----------------
IN: 
0xfffd81ae:  48 89 e2                 movq     %rsp, %rdx

----------------
IN: 
0xfffd81b1:  48 83 ec 20              subq     $0x20, %rsp

----------------
IN: 
0xfffd81b5:  e8 f3 a5 ff ff           callq    0xfffd27ad

----------------
IN: 
0xfffd27ad:  55                       pushq    %rbp

----------------
IN: 
0xfffd27ae:  48 89 e5                 movq     %rsp, %rbp

----------------
IN: 
0xfffd27b1:  41 57                    pushq    %r15

----------------
IN: 
0xfffd27b3:  41 56                    pushq    %r14

----------------
IN: 
0xfffd27b5:  41 55                    pushq    %r13

----------------
IN: 
0xfffd27b7:  41 54                    pushq    %r12

----------------
IN: 
0xfffd27b9:  57                       pushq    %rdi

----------------
IN: 
0xfffd27ba:  56                       pushq    %rsi

----------------
IN: 
0xfffd27bb:  53                       pushq    %rbx

----------------
IN: 
0xfffd27bc:  48 81 ec 38 03 00 00     subq     $0x338, %rsp

----------------
IN: 
0xfffd27c3:  48 89 4d 10              movq     %rcx, 0x10(%rbp)

----------------
IN: 
0xfffd27c7:  48 89 55 18              movq     %rdx, 0x18(%rbp)

----------------
IN: 
0xfffd27cb:  80 3c 25 00 b0 80 00 02  cmpb     $2, 0x80b000

----------------
IN: 
0xfffd27d3:  0f 85 f0 07 00 00        jne      0xfffd2fc9

----------------
IN: 
0xfffd2fc9:  b8 00 70 80 00           movl     $0x807000, %eax

----------------
IN: 
0xfffd2fce:  c6 00 00                 movb     $0, (%rax)

----------------
IN: 
0xfffd2fd1:  48 ff c0                 incq     %rax

----------------
IN: 
0xfffd2fd4:  48 3d 00 80 80 00        cmpq     $0x808000, %rax

----------------
IN: 
0xfffd2fda:  75 f2                    jne      0xfffd2fce

----------------
IN: 
0xfffd2fdc:  31 d2                    xorl     %edx, %edx

----------------
IN: 
0xfffd2fde:  48 8d 85 a0 fd ff ff     leaq     -0x260(%rbp), %rax

----------------
IN: 
0xfffd2fe5:  4c 8d 45 c0              leaq     -0x40(%rbp), %r8

----------------
IN: 
0xfffd2fe9:  48 89 95 98 fd ff ff     movq     %rdx, -0x268(%rbp)

----------------
IN: 
0xfffd2ff0:  48 89 c1                 movq     %rax, %rcx

----------------
IN: 
0xfffd2ff3:  4c 8d 0d 4a 9d 00 00     leaq     0x9d4a(%rip), %r9

----------------
IN: 
0xfffd2ffa:  31 d2                    xorl     %edx, %edx

----------------
IN: 
0xfffd2ffc:  45 8a 1c 11              movb     (%r9, %rdx), %r11b

----------------
IN: 
0xfffd3000:  4c 8d 14 10              leaq     (%rax, %rdx), %r10

----------------
IN: 
0xfffd3004:  48 ff c2                 incq     %rdx

----------------
IN: 
0xfffd3007:  45 88 1a                 movb     %r11b, (%r10)

----------------
IN: 
0xfffd300a:  48 83 fa 10              cmpq     $0x10, %rdx

----------------
IN: 
0xfffd300e:  75 ec                    jne      0xfffd2ffc

----------------
IN: 
0xfffd3010:  48 83 c0 10              addq     $0x10, %rax

----------------
IN: 
0xfffd3014:  49 39 c0                 cmpq     %rax, %r8

----------------
IN: 
0xfffd3017:  75 e1                    jne      0xfffd2ffa

----------------
IN: 
0xfffd3019:  48 89 8d 08 fd ff ff     movq     %rcx, -0x2f8(%rbp)

----------------
IN: 
0xfffd3020:  66 c7 85 06 fd ff ff 1f  movw     $0x21f, -0x2fa(%rbp)
0xfffd3028:  02

----------------
IN: 
0xfffd3029:  e8 18 93 ff ff           callq    0xfffcc346

----------------
IN: 
0xfffcc346:  31 c0                    xorl     %eax, %eax

----------------
IN: 
0xfffcc348:  80 3c 25 00 b0 80 00 01  cmpb     $1, 0x80b000

----------------
IN: 
0xfffcc350:  75 0e                    jne      0xfffcc360

----------------
IN: 
0xfffcc360:  c3                       retq     

----------------
IN: 
0xfffd302e:  84 c0                    testb    %al, %al

----------------
IN: 
0xfffd3030:  0f 84 2e 01 00 00        je       0xfffd3164

----------------
IN: 
0xfffd3164:  b9 02 00 00 00           movl     $2, %ecx

----------------
IN: 
0xfffd3169:  e8 25 31 00 00           callq    0xfffd6293

----------------
IN: 
0xfffd6293:  55                       pushq    %rbp

----------------
IN: 
0xfffd6294:  48 89 e5                 movq     %rsp, %rbp

----------------
IN: 
0xfffd6297:  57                       pushq    %rdi

----------------
IN: 
0xfffd6298:  56                       pushq    %rsi

----------------
IN: 
0xfffd6299:  53                       pushq    %rbx

----------------
IN: 
0xfffd629a:  48 83 ec 28              subq     $0x28, %rsp

----------------
IN: 
0xfffd629e:  e8 bf 76 ff ff           callq    0xfffcd962

----------------
IN: 
0xfffcd962:  9c                       pushfq   

----------------
IN: 
0xfffcd963:  58                       popq     %rax

----------------
IN: 
0xfffcd964:  fa                       cli      

----------------
IN: 
0xfffcd965:  66 c1 e8 09              shrw     $9, %ax

----------------
IN: 
0xfffcd969:  83 e0 01                 andl     $1, %eax

----------------
IN: 
0xfffcd96c:  c3                       retq     

----------------
IN: 
0xfffd62a3:  b9 f8 0c 00 00           movl     $0xcf8, %ecx

----------------
IN: 
0xfffd62a8:  89 c3                    movl     %eax, %ebx

----------------
IN: 
0xfffd62aa:  e8 7d 82 ff ff           callq    0xfffce52c

----------------
IN: 
0xfffce52c:  55                       pushq    %rbp

----------------
IN: 
0xfffce52d:  48 89 e5                 movq     %rsp, %rbp

----------------
IN: 
0xfffce530:  56                       pushq    %rsi

----------------
IN: 
0xfffce531:  48 89 ce                 movq     %rcx, %rsi

----------------
IN: 
0xfffce534:  53                       pushq    %rbx

----------------
IN: 
0xfffce535:  48 89 cb                 movq     %rcx, %rbx

----------------
IN: 
0xfffce538:  48 83 ec 40              subq     $0x40, %rsp

----------------
IN: 
0xfffce53c:  83 e6 03                 andl     $3, %esi

----------------
IN: 
0xfffce53f:  74 18                    je       0xfffce559

----------------
IN: 
0xfffce559:  80 3c 25 00 b0 80 00 02  cmpb     $2, 0x80b000

----------------
IN: 
0xfffce561:  75 6a                    jne      0xfffce5cd

----------------
IN: 
0xfffce5cd:  89 da                    movl     %ebx, %edx

----------------
IN: 
0xfffce5cf:  ed                       inl      %dx, %eax

----------------
IN: 
0xfffce5d0:  48 83 c4 40              addq     $0x40, %rsp

----------------
IN: 
0xfffce5d4:  5b                       popq     %rbx

----------------
IN: 
0xfffce5d5:  5e                       popq     %rsi

----------------
IN: 
0xfffce5d6:  5d                       popq     %rbp

----------------
IN: 
0xfffce5d7:  c3                       retq     

----------------
IN: 
0xfffd62af:  ba 00 00 00 80           movl     $0x80000000, %edx

----------------
IN: 
0xfffd62b4:  b9 f8 0c 00 00           movl     $0xcf8, %ecx

----------------
IN: 
0xfffd62b9:  89 c7                    movl     %eax, %edi

----------------
IN: 
0xfffd62bb:  e8 18 83 ff ff           callq    0xfffce5d8

----------------
IN: 
0xfffce5d8:  55                       pushq    %rbp

----------------
IN: 
0xfffce5d9:  48 89 e5                 movq     %rsp, %rbp

----------------
IN: 
0xfffce5dc:  57                       pushq    %rdi

----------------
IN: 
0xfffce5dd:  48 89 cf                 movq     %rcx, %rdi

----------------
IN: 
0xfffce5e0:  56                       pushq    %rsi

----------------
IN: 
0xfffce5e1:  89 d6                    movl     %edx, %esi

----------------
IN: 
0xfffce5e3:  53                       pushq    %rbx

----------------
IN: 
0xfffce5e4:  48 89 cb                 movq     %rcx, %rbx

----------------
IN: 
0xfffce5e7:  48 83 ec 38              subq     $0x38, %rsp

----------------
IN: 
0xfffce5eb:  83 e7 03                 andl     $3, %edi

----------------
IN: 
0xfffce5ee:  74 18                    je       0xfffce608

----------------
IN: 
0xfffce608:  80 3c 25 00 b0 80 00 02  cmpb     $2, 0x80b000

----------------
IN: 
0xfffce610:  75 68                    jne      0xfffce67a

----------------
IN: 
0xfffce67a:  89 f0                    movl     %esi, %eax

----------------
IN: 
0xfffce67c:  89 da                    movl     %ebx, %edx

----------------
IN: 
0xfffce67e:  ef                       outl     %eax, %dx

----------------
IN: 
0xfffce67f:  48 83 c4 38              addq     $0x38, %rsp

----------------
IN: 
0xfffce683:  89 f0                    movl     %esi, %eax

----------------
IN: 
0xfffce685:  5b                       popq     %rbx

----------------
IN: 
0xfffce686:  5e                       popq     %rsi

----------------
IN: 
0xfffce687:  5f                       popq     %rdi

----------------
IN: 
0xfffce688:  5d                       popq     %rbp

----------------
IN: 
0xfffce689:  c3                       retq     

----------------
IN: 
0xfffd62c0:  b9 fe 0c 00 00           movl     $0xcfe, %ecx

----------------
IN: 
0xfffd62c5:  e8 b5 81 ff ff           callq    0xfffce47f

----------------
IN: 
0xfffce47f:  55                       pushq    %rbp

----------------
IN: 
0xfffce480:  48 89 e5                 movq     %rsp, %rbp

----------------
IN: 
0xfffce483:  56                       pushq    %rsi

----------------
IN: 
0xfffce484:  48 89 ce                 movq     %rcx, %rsi

----------------
IN: 
0xfffce487:  53                       pushq    %rbx

----------------
IN: 
0xfffce488:  48 89 cb                 movq     %rcx, %rbx

----------------
IN: 
0xfffce48b:  48 83 ec 40              subq     $0x40, %rsp

----------------
IN: 
0xfffce48f:  83 e6 01                 andl     $1, %esi

----------------
IN: 
0xfffce492:  74 18                    je       0xfffce4ac

----------------
IN: 
0xfffce4ac:  80 3c 25 00 b0 80 00 02  cmpb     $2, 0x80b000

----------------
IN: 
0xfffce4b4:  75 6a                    jne      0xfffce520

----------------
IN: 
0xfffce520:  89 da                    movl     %ebx, %edx

----------------
IN: 
0xfffce522:  66 ed                    inw      %dx, %ax

----------------
IN: 
0xfffce524:  48 83 c4 40              addq     $0x40, %rsp

----------------
IN: 
0xfffce528:  5b                       popq     %rbx

----------------
IN: 
0xfffce529:  5e                       popq     %rsi

----------------
IN: 
0xfffce52a:  5d                       popq     %rbp

----------------
IN: 
0xfffce52b:  c3                       retq     

----------------
IN: 
0xfffd62ca:  89 fa                    movl     %edi, %edx

----------------
IN: 
0xfffd62cc:  b9 f8 0c 00 00           movl     $0xcf8, %ecx

----------------
IN: 
0xfffd62d1:  89 c6                    movl     %eax, %esi

----------------
IN: 
0xfffd62d3:  e8 00 83 ff ff           callq    0xfffce5d8

----------------
IN: 
0xfffd62d8:  0f b6 cb                 movzbl   %bl, %ecx

----------------
IN: 
0xfffd62db:  e8 8d 76 ff ff           callq    0xfffcd96d

----------------
IN: 
0xfffcd96d:  89 c8                    movl     %ecx, %eax

----------------
IN: 
0xfffcd96f:  84 c9                    testb    %cl, %cl

----------------
IN: 
0xfffcd971:  74 02                    je       0xfffcd975

----------------
IN: 
0xfffcd975:  fa                       cli      

----------------
IN: 
0xfffcd976:  c3                       retq     

----------------
IN: 
0xfffd62e0:  48 83 c4 28              addq     $0x28, %rsp

----------------
IN: 
0xfffd62e4:  89 f0                    movl     %esi, %eax

----------------
IN: 
0xfffd62e6:  5b                       popq     %rbx

----------------
IN: 
0xfffd62e7:  5e                       popq     %rsi

----------------
IN: 
0xfffd62e8:  5f                       popq     %rdi

----------------
IN: 
0xfffd62e9:  5d                       popq     %rbp

----------------
IN: 
0xfffd62ea:  c3                       retq     

----------------
IN: 
0xfffd316e:  44 0f b7 c8              movzwl   %ax, %r9d

----------------
IN: 
0xfffd3172:  66 41 81 f9 37 12        cmpw     $0x1237, %r9w

----------------
IN: 
0xfffd3178:  74 7b                    je       0xfffd31f5

----------------
IN: 
0xfffd31f5:  41 b4 01                 movb     $1, %r12b

----------------
IN: 
0xfffd31f8:  bf 00 b0 00 00           movl     $0xb000, %edi

----------------
IN: 
0xfffd31fd:  bb 40 b0 00 00           movl     $0xb040, %ebx

----------------
IN: 
0xfffd3202:  41 bf 80 b0 00 00        movl     $0xb080, %r15d

----------------
IN: 
0xfffd3208:  41 bd 3f 00 ff ff        movl     $0xffff003f, %r13d

----------------
IN: 
0xfffd320e:  eb 19                    jmp      0xfffd3229

----------------
IN: 
0xfffd3229:  e8 34 a7 ff ff           callq    0xfffcd962

----------------
IN: 
0xfffd322e:  b9 f8 0c 00 00           movl     $0xcf8, %ecx

----------------
IN: 
0xfffd3233:  41 89 c6                 movl     %eax, %r14d

----------------
IN: 
0xfffd3236:  e8 f1 b2 ff ff           callq    0xfffce52c

----------------
IN: 
0xfffd323b:  b9 f8 0c 00 00           movl     $0xcf8, %ecx

----------------
IN: 
0xfffd3240:  89 c6                    movl     %eax, %esi

----------------
IN: 
0xfffd3242:  4c 89 f8                 movq     %r15, %rax

----------------
IN: 
0xfffd3245:  41 81 e7 fc 00 00 00     andl     $0xfc, %r15d

----------------
IN: 
0xfffd324c:  48 c1 e8 04              shrq     $4, %rax

----------------
IN: 
0xfffd3250:  25 00 ff ff 00           andl     $0xffff00, %eax

----------------
IN: 
0xfffd3255:  44 09 f8                 orl      %r15d, %eax

----------------
IN: 
0xfffd3258:  0d 00 00 00 80           orl      $0x80000000, %eax

----------------
IN: 
0xfffd325d:  89 c2                    movl     %eax, %edx

----------------
IN: 
0xfffd325f:  89 85 e8 fc ff ff        movl     %eax, -0x318(%rbp)

----------------
IN: 
0xfffd3265:  e8 6e b3 ff ff           callq    0xfffce5d8

----------------
IN: 
0xfffd326a:  b9 fc 0c 00 00           movl     $0xcfc, %ecx

----------------
IN: 
0xfffd326f:  e8 74 a5 ff ff           callq    0xfffcd7e8

----------------
IN: 
0xfffcd7e8:  80 3c 25 00 b0 80 00 02  cmpb     $2, 0x80b000

----------------
IN: 
0xfffcd7f0:  49 89 c9                 movq     %rcx, %r9

----------------
IN: 
0xfffcd7f3:  75 52                    jne      0xfffcd847

----------------
IN: 
0xfffcd847:  89 ca                    movl     %ecx, %edx

----------------
IN: 
0xfffcd849:  ec                       inb      %dx, %al

----------------
IN: 
0xfffcd84a:  c3                       retq     

----------------
IN: 
0xfffd3274:  b9 f8 0c 00 00           movl     $0xcf8, %ecx

----------------
IN: 
0xfffd3279:  89 f2                    movl     %esi, %edx

----------------
IN: 
0xfffd327b:  41 89 c7                 movl     %eax, %r15d

----------------
IN: 
0xfffd327e:  e8 55 b3 ff ff           callq    0xfffce5d8

----------------
IN: 
0xfffd3283:  41 0f b6 ce              movzbl   %r14b, %ecx

----------------
IN: 
0xfffd3287:  e8 e1 a6 ff ff           callq    0xfffcd96d

----------------
IN: 
0xfffd328c:  45 84 fc                 testb    %r15b, %r12b

----------------
IN: 
0xfffd328f:  0f 85 ce 00 00 00        jne      0xfffd3363

----------------
IN: 
0xfffd3295:  e8 c8 a6 ff ff           callq    0xfffcd962

----------------
IN: 
0xfffd329a:  48 c1 eb 04              shrq     $4, %rbx

----------------
IN: 
0xfffd329e:  b9 f8 0c 00 00           movl     $0xcf8, %ecx

----------------
IN: 
0xfffd32a3:  89 c6                    movl     %eax, %esi

----------------
IN: 
0xfffd32a5:  e8 82 b2 ff ff           callq    0xfffce52c

----------------
IN: 
0xfffd32aa:  48 89 da                 movq     %rbx, %rdx

----------------
IN: 
0xfffd32ad:  b9 f8 0c 00 00           movl     $0xcf8, %ecx

----------------
IN: 
0xfffd32b2:  81 e2 00 ff ff 00        andl     $0xffff00, %edx

----------------
IN: 
0xfffd32b8:  41 89 c6                 movl     %eax, %r14d

----------------
IN: 
0xfffd32bb:  81 ca 40 00 00 80        orl      $0x80000040, %edx

----------------
IN: 
0xfffd32c1:  e8 12 b3 ff ff           callq    0xfffce5d8

----------------
IN: 
0xfffd32c6:  b9 fc 0c 00 00           movl     $0xcfc, %ecx

----------------
IN: 
0xfffd32cb:  e8 5c b2 ff ff           callq    0xfffce52c

----------------
IN: 
0xfffd32d0:  44 89 ea                 movl     %r13d, %edx

----------------
IN: 
0xfffd32d3:  b9 fc 0c 00 00           movl     $0xcfc, %ecx

----------------
IN: 
0xfffd32d8:  21 c2                    andl     %eax, %edx

----------------
IN: 
0xfffd32da:  09 fa                    orl      %edi, %edx

----------------
IN: 
0xfffd32dc:  e8 f7 b2 ff ff           callq    0xfffce5d8

----------------
IN: 
0xfffd32e1:  44 89 f2                 movl     %r14d, %edx

----------------
IN: 
0xfffd32e4:  b9 f8 0c 00 00           movl     $0xcf8, %ecx

----------------
IN: 
0xfffd32e9:  e8 ea b2 ff ff           callq    0xfffce5d8

----------------
IN: 
0xfffd32ee:  40 0f b6 ce              movzbl   %sil, %ecx

----------------
IN: 
0xfffd32f2:  e8 76 a6 ff ff           callq    0xfffcd96d

----------------
IN: 
0xfffd32f7:  b9 f8 0c 00 00           movl     $0xcf8, %ecx

----------------
IN: 
0xfffd32fc:  e8 61 a6 ff ff           callq    0xfffcd962

----------------
IN: 
0xfffd3301:  89 c3                    movl     %eax, %ebx

----------------
IN: 
0xfffd3303:  e8 24 b2 ff ff           callq    0xfffce52c

----------------
IN: 
0xfffd3308:  8b 95 e8 fc ff ff        movl     -0x318(%rbp), %edx

----------------
IN: 
0xfffd330e:  b9 f8 0c 00 00           movl     $0xcf8, %ecx

----------------
IN: 
0xfffd3313:  89 c6                    movl     %eax, %esi

----------------
IN: 
0xfffd3315:  e8 be b2 ff ff           callq    0xfffce5d8

----------------
IN: 
0xfffd331a:  b9 fc 0c 00 00           movl     $0xcfc, %ecx

----------------
IN: 
0xfffd331f:  e8 c4 a4 ff ff           callq    0xfffcd7e8

----------------
IN: 
0xfffd3324:  b9 fc 0c 00 00           movl     $0xcfc, %ecx

----------------
IN: 
0xfffd3329:  41 09 c4                 orl      %eax, %r12d

----------------
IN: 
0xfffd332c:  41 0f b6 d4              movzbl   %r12b, %edx

----------------
IN: 
0xfffd3330:  e8 16 a5 ff ff           callq    0xfffcd84b

----------------
IN: 
0xfffcd84b:  55                       pushq    %rbp

----------------
IN: 
0xfffcd84c:  48 89 e5                 movq     %rsp, %rbp

----------------
IN: 
0xfffcd84f:  53                       pushq    %rbx

----------------
IN: 
0xfffcd850:  89 d3                    movl     %edx, %ebx

----------------
IN: 
0xfffcd852:  48 83 ec 28              subq     $0x28, %rsp

----------------
IN: 
0xfffcd856:  80 3c 25 00 b0 80 00 02  cmpb     $2, 0x80b000

----------------
IN: 
0xfffcd85e:  75 0a                    jne      0xfffcd86a

----------------
IN: 
0xfffcd86a:  89 d0                    movl     %edx, %eax

----------------
IN: 
0xfffcd86c:  89 ca                    movl     %ecx, %edx

----------------
IN: 
0xfffcd86e:  ee                       outb     %al, %dx

----------------
IN: 
0xfffcd86f:  48 83 c4 28              addq     $0x28, %rsp

----------------
IN: 
0xfffcd873:  89 d8                    movl     %ebx, %eax

----------------
IN: 
0xfffcd875:  5b                       popq     %rbx

----------------
IN: 
0xfffcd876:  5d                       popq     %rbp

----------------
IN: 
0xfffcd877:  c3                       retq     

----------------
IN: 
0xfffd3335:  89 f2                    movl     %esi, %edx

----------------
IN: 
0xfffd3337:  b9 f8 0c 00 00           movl     $0xcf8, %ecx

----------------
IN: 
0xfffd333c:  e8 97 b2 ff ff           callq    0xfffce5d8

----------------
IN: 
0xfffd3341:  0f b6 cb                 movzbl   %bl, %ecx

----------------
IN: 
0xfffd3344:  e8 24 a6 ff ff           callq    0xfffcd96d

----------------
IN: 
0xfffd3349:  eb 18                    jmp      0xfffd3363

----------------
IN: 
0xfffd3363:  48 8d 85 50 fd ff ff     leaq     -0x2b0(%rbp), %rax

----------------
IN: 
0xfffd336a:  48 89 c7                 movq     %rax, %rdi

----------------
IN: 
0xfffd336d:  48 89 85 e0 fc ff ff     movq     %rax, -0x320(%rbp)

----------------
IN: 
0xfffd3374:  e8 42 90 ff ff           callq    0xfffcc3bb

----------------
IN: 
0xfffcc3bb:  81 3c 25 00 70 80 00 45  cmpl     $0x49534745, 0x807000
0xfffcc3c3:  47 53 49

----------------
IN: 
0xfffcc3c6:  74 30                    je       0xfffcc3f8

----------------
IN: 
0xfffcc3c8:  48 c7 04 25 00 70 80 00  movq     $0x49534745, 0x807000
0xfffcc3d0:  45 47 53 49

----------------
IN: 
0xfffcc3d4:  48 c7 04 25 08 70 80 00  movq     $0x807020, 0x807008
0xfffcc3dc:  20 70 80 00

----------------
IN: 
0xfffcc3e0:  48 c7 04 25 10 70 80 00  movq     $0x807120, 0x807010
0xfffcc3e8:  20 71 80 00

----------------
IN: 
0xfffcc3ec:  48 c7 04 25 18 70 80 00  movq     $0x8071a0, 0x807018
0xfffcc3f4:  a0 71 80 00

----------------
IN: 
0xfffcc3f8:  48 c7 07 00 70 80 00     movq     $0x807000, (%rdi)

----------------
IN: 
0xfffcc3ff:  31 c0                    xorl     %eax, %eax

----------------
IN: 
0xfffcc401:  c3                       retq     

----------------
IN: 
0xfffd3379:  49 89 c0                 movq     %rax, %r8

----------------
IN: 
0xfffd337c:  48 85 c0                 testq    %rax, %rax

----------------
IN: 
0xfffd337f:  0f 88 c4 00 00 00        js       0xfffd3449

----------------
IN: 
0xfffd3385:  48 8b 9d 50 fd ff ff     movq     -0x2b0(%rbp), %rbx

----------------
IN: 
0xfffd338c:  48 85 db                 testq    %rbx, %rbx

----------------
IN: 
0xfffd338f:  75 18                    jne      0xfffd33a9

----------------
IN: 
0xfffd33a9:  31 f6                    xorl     %esi, %esi

----------------
IN: 
0xfffd33ab:  48 8d 3d 52 99 00 00     leaq     0x9952(%rip), %rdi

----------------
IN: 
0xfffd33b2:  8b 4b 04                 movl     4(%rbx), %ecx

----------------
IN: 
0xfffd33b5:  39 ce                    cmpl     %ecx, %esi

----------------
IN: 
0xfffd33b7:  73 41                    jae      0xfffd33fa

----------------
IN: 
0xfffd33fa:  83 f9 0f                 cmpl     $0xf, %ecx

----------------
IN: 
0xfffd33fd:  77 40                    ja       0xfffd343f

----------------
IN: 
0xfffd33ff:  48 8d 15 fe 98 00 00     leaq     0x98fe(%rip), %rdx

----------------
IN: 
0xfffd3406:  48 c1 e1 04              shlq     $4, %rcx

----------------
IN: 
0xfffd340a:  48 03 4b 08              addq     8(%rbx), %rcx

----------------
IN: 
0xfffd340e:  e8 11 c4 ff ff           callq    0xfffcf824

----------------
IN: 
0xfffcf824:  55                       pushq    %rbp

----------------
IN: 
0xfffcf825:  48 89 e5                 movq     %rsp, %rbp

----------------
IN: 
0xfffcf828:  57                       pushq    %rdi

----------------
IN: 
0xfffcf829:  56                       pushq    %rsi

----------------
IN: 
0xfffcf82a:  48 89 d6                 movq     %rdx, %rsi

----------------
IN: 
0xfffcf82d:  53                       pushq    %rbx

----------------
IN: 
0xfffcf82e:  48 89 cb                 movq     %rcx, %rbx

----------------
IN: 
0xfffcf831:  48 89 d1                 movq     %rdx, %rcx

----------------
IN: 
0xfffcf834:  48 83 ec 28              subq     $0x28, %rsp

----------------
IN: 
0xfffcf838:  e8 b4 ff ff ff           callq    0xfffcf7f1

----------------
IN: 
0xfffcf7f1:  55                       pushq    %rbp

----------------
IN: 
0xfffcf7f2:  48 89 e5                 movq     %rsp, %rbp

----------------
IN: 
0xfffcf7f5:  53                       pushq    %rbx

----------------
IN: 
0xfffcf7f6:  48 89 cb                 movq     %rcx, %rbx

----------------
IN: 
0xfffcf7f9:  48 83 ec 28              subq     $0x28, %rsp

----------------
IN: 
0xfffcf7fd:  48 85 c9                 testq    %rcx, %rcx

----------------
IN: 
0xfffcf800:  75 18                    jne      0xfffcf81a

----------------
IN: 
0xfffcf81a:  48 8b 03                 movq     (%rbx), %rax

----------------
IN: 
0xfffcf81d:  48 83 c4 28              addq     $0x28, %rsp

----------------
IN: 
0xfffcf821:  5b                       popq     %rbx

----------------
IN: 
0xfffcf822:  5d                       popq     %rbp

----------------
IN: 
0xfffcf823:  c3                       retq     

----------------
IN: 
0xfffcf83d:  48 89 c7                 movq     %rax, %rdi

----------------
IN: 
0xfffcf840:  48 85 db                 testq    %rbx, %rbx

----------------
IN: 
0xfffcf843:  75 18                    jne      0xfffcf85d

----------------
IN: 
0xfffcf85d:  48 89 3b                 movq     %rdi, (%rbx)

----------------
IN: 
0xfffcf860:  48 8d 4e 08              leaq     8(%rsi), %rcx

----------------
IN: 
0xfffcf864:  e8 88 ff ff ff           callq    0xfffcf7f1

----------------
IN: 
0xfffcf869:  48 89 43 08              movq     %rax, 8(%rbx)

----------------
IN: 
0xfffcf86d:  48 83 c4 28              addq     $0x28, %rsp

----------------
IN: 
0xfffcf871:  48 89 d8                 movq     %rbx, %rax

----------------
IN: 
0xfffcf874:  5b                       popq     %rbx

----------------
IN: 
0xfffcf875:  5e                       popq     %rsi

----------------
IN: 
0xfffcf876:  5f                       popq     %rdi

----------------
IN: 
0xfffcf877:  5d                       popq     %rbp

----------------
IN: 
0xfffcf878:  c3                       retq     

----------------
IN: 
0xfffd3413:  8b 53 04                 movl     4(%rbx), %edx

----------------
IN: 
0xfffd3416:  48 8b 43 10              movq     0x10(%rbx), %rax

----------------
IN: 
0xfffd341a:  48 8d 3d af c4 ff ff     leaq     -0x3b51(%rip), %rdi

----------------
IN: 
0xfffd3421:  48 89 3c d0              movq     %rdi, (%rax, %rdx, 8)

----------------
IN: 
0xfffd3425:  8b 43 04                 movl     4(%rbx), %eax

----------------
IN: 
0xfffd3428:  48 8d 3d 94 c9 ff ff     leaq     -0x366c(%rip), %rdi

----------------
IN: 
0xfffd342f:  48 8b 53 18              movq     0x18(%rbx), %rdx

----------------
IN: 
0xfffd3433:  8d 48 01                 leal     1(%rax), %ecx

----------------
IN: 
0xfffd3436:  89 4b 04                 movl     %ecx, 4(%rbx)

----------------
IN: 
0xfffd3439:  48 89 3c c2              movq     %rdi, (%rdx, %rax, 8)

----------------
IN: 
0xfffd343d:  eb 3c                    jmp      0xfffd347b

----------------
IN: 
0xfffd347b:  e8 c6 8e ff ff           callq    0xfffcc346

----------------
IN: 
0xfffd3480:  84 c0                    testb    %al, %al

----------------
IN: 
0xfffd3482:  75 09                    jne      0xfffd348d

----------------
IN: 
0xfffd3484:  0f 01 9d 06 fd ff ff     lidtq    -0x2fa(%rbp)

----------------
IN: 
0xfffd348b:  eb 05                    jmp      0xfffd3492

----------------
IN: 
0xfffd3492:  80 3c 25 00 b0 80 00 02  cmpb     $2, 0x80b000

----------------
IN: 
0xfffd349a:  75 07                    jne      0xfffd34a3

----------------
IN: 
0xfffd34a3:  e8 8e ca ff ff           callq    0xfffcff36

----------------
IN: 
0xfffcff36:  b0 01                    movb     $1, %al

----------------
IN: 
0xfffcff38:  c3                       retq     

----------------
IN: 
0xfffd34a8:  41 89 c5                 movl     %eax, %r13d

----------------
IN: 
0xfffd34ab:  84 c0                    testb    %al, %al

----------------
IN: 
0xfffd34ad:  74 19                    je       0xfffd34c8

----------------
IN: 
0xfffd34af:  44 8b 4d 18              movl     0x18(%rbp), %r9d

----------------
IN: 
0xfffd34b3:  44 8b 45 10              movl     0x10(%rbp), %r8d

----------------
IN: 
0xfffd34b7:  b9 40 00 00 00           movl     $0x40, %ecx

----------------
IN: 
0xfffd34bc:  48 8d 15 87 74 00 00     leaq     0x7487(%rip), %rdx

----------------
IN: 
0xfffd34c3:  e8 80 c5 ff ff           callq    0xfffcfa48

----------------
IN: 
0xfffcfa48:  55                       pushq    %rbp

----------------
IN: 
0xfffcfa49:  48 89 e5                 movq     %rsp, %rbp

----------------
IN: 
0xfffcfa4c:  57                       pushq    %rdi

----------------
IN: 
0xfffcfa4d:  56                       pushq    %rsi

----------------
IN: 
0xfffcfa4e:  48 8d 75 20              leaq     0x20(%rbp), %rsi

----------------
IN: 
0xfffcfa52:  48 83 ec 30              subq     $0x30, %rsp

----------------
IN: 
0xfffcfa56:  4c 89 45 20              movq     %r8, 0x20(%rbp)

----------------
IN: 
0xfffcfa5a:  4c 89 4d 28              movq     %r9, 0x28(%rbp)

----------------
IN: 
0xfffcfa5e:  48 89 75 e8              movq     %rsi, -0x18(%rbp)

----------------
IN: 
0xfffcfa62:  f7 c1 4f 40 00 80        testl    $0x8000404f, %ecx

----------------
IN: 
0xfffcfa68:  74 16                    je       0xfffcfa80

----------------
IN: 
0xfffcfa6a:  b9 02 04 00 00           movl     $0x402, %ecx

----------------
IN: 
0xfffcfa6f:  48 89 d7                 movq     %rdx, %rdi

----------------
IN: 
0xfffcfa72:  e8 71 dd ff ff           callq    0xfffcd7e8

----------------
IN: 
0xfffcfa77:  3c e9                    cmpb     $0xe9, %al

----------------
IN: 
0xfffcfa79:  75 05                    jne      0xfffcfa80

----------------
IN: 
0xfffcfa7b:  e8 99 75 00 00           callq    0xfffd7019

----------------
IN: 
0xfffd7019:  55                       pushq    %rbp

----------------
IN: 
0xfffd701a:  48 89 fa                 movq     %rdi, %rdx

----------------
IN: 
0xfffd701d:  48 89 f1                 movq     %rsi, %rcx

----------------
IN: 
0xfffd7020:  be 00 02 00 00           movl     $0x200, %esi

----------------
IN: 
0xfffd7025:  48 89 e5                 movq     %rsp, %rbp

----------------
IN: 
0xfffd7028:  48 81 ec 10 02 00 00     subq     $0x210, %rsp

----------------
IN: 
0xfffd702f:  4c 8d 85 00 fe ff ff     leaq     -0x200(%rbp), %r8

----------------
IN: 
0xfffd7036:  4c 89 c7                 movq     %r8, %rdi

----------------
IN: 
0xfffd7039:  4c 89 85 f8 fd ff ff     movq     %r8, -0x208(%rbp)

----------------
IN: 
0xfffd7040:  e8 6c f4 ff ff           callq    0xfffd64b1

----------------
IN: 
0xfffd64b1:  55                       pushq    %rbp

----------------
IN: 
0xfffd64b2:  48 89 e5                 movq     %rsp, %rbp

----------------
IN: 
0xfffd64b5:  41 57                    pushq    %r15

----------------
IN: 
0xfffd64b7:  49 89 d7                 movq     %rdx, %r15

----------------
IN: 
0xfffd64ba:  41 56                    pushq    %r14

----------------
IN: 
0xfffd64bc:  41 55                    pushq    %r13

----------------
IN: 
0xfffd64be:  41 54                    pushq    %r12

----------------
IN: 
0xfffd64c0:  53                       pushq    %rbx

----------------
IN: 
0xfffd64c1:  48 89 f3                 movq     %rsi, %rbx

----------------
IN: 
0xfffd64c4:  48 81 ec a8 00 00 00     subq     $0xa8, %rsp

----------------
IN: 
0xfffd64cb:  48 89 bd 60 ff ff ff     movq     %rdi, -0xa0(%rbp)

----------------
IN: 
0xfffd64d2:  48 89 4d 80              movq     %rcx, -0x80(%rbp)

----------------
IN: 
0xfffd64d6:  48 85 f6                 testq    %rsi, %rsi

----------------
IN: 
0xfffd64d9:  74 5e                    je       0xfffd6539

----------------
IN: 
0xfffd64db:  48 85 ff                 testq    %rdi, %rdi

----------------
IN: 
0xfffd64de:  75 12                    jne      0xfffd64f2

----------------
IN: 
0xfffd64f2:  48 85 d2                 testq    %rdx, %rdx

----------------
IN: 
0xfffd64f5:  75 27                    jne      0xfffd651e

----------------
IN: 
0xfffd651e:  48 81 fe 40 42 0f 00     cmpq     $0xf4240, %rsi

----------------
IN: 
0xfffd6525:  76 12                    jbe      0xfffd6539

----------------
IN: 
0xfffd6539:  48 83 ec 20              subq     $0x20, %rsp

----------------
IN: 
0xfffd653d:  ba 41 42 0f 00           movl     $0xf4241, %edx

----------------
IN: 
0xfffd6542:  4c 89 f9                 movq     %r15, %rcx

----------------
IN: 
0xfffd6545:  e8 2d 74 ff ff           callq    0xfffcd977

----------------
IN: 
0xfffcd977:  31 c0                    xorl     %eax, %eax

----------------
IN: 
0xfffcd979:  48 85 c9                 testq    %rcx, %rcx

----------------
IN: 
0xfffcd97c:  74 1a                    je       0xfffcd998

----------------
IN: 
0xfffcd97e:  4c 8d 42 ff              leaq     -1(%rdx), %r8

----------------
IN: 
0xfffcd982:  48 85 d2                 testq    %rdx, %rdx

----------------
IN: 
0xfffcd985:  74 11                    je       0xfffcd998

----------------
IN: 
0xfffcd987:  80 3c 01 00              cmpb     $0, (%rcx, %rax)

----------------
IN: 
0xfffcd98b:  74 0a                    je       0xfffcd997

----------------
IN: 
0xfffcd98d:  4c 39 c0                 cmpq     %r8, %rax

----------------
IN: 
0xfffcd990:  73 07                    jae      0xfffcd999

----------------
IN: 
0xfffcd992:  48 ff c0                 incq     %rax

----------------
IN: 
0xfffcd995:  eb f0                    jmp      0xfffcd987

----------------
IN: 
0xfffcd997:  c3                       retq     

----------------
IN: 
0xfffd654a:  48 83 c4 20              addq     $0x20, %rsp

----------------
IN: 
0xfffd654e:  48 3d 40 42 0f 00        cmpq     $0xf4240, %rax

----------------
IN: 
0xfffd6554:  76 20                    jbe      0xfffd6576

----------------
IN: 
0xfffd6576:  48 83 ec 20              subq     $0x20, %rsp

----------------
IN: 
0xfffd657a:  ba 41 42 0f 00           movl     $0xf4241, %edx

----------------
IN: 
0xfffd657f:  4c 89 f9                 movq     %r15, %rcx

----------------
IN: 
0xfffd6582:  e8 f0 73 ff ff           callq    0xfffcd977

----------------
IN: 
0xfffd6587:  48 83 c4 20              addq     $0x20, %rsp

----------------
IN: 
0xfffd658b:  48 3d 40 42 0f 00        cmpq     $0xf4240, %rax

----------------
IN: 
0xfffd6591:  77 84                    ja       0xfffd6517

----------------
IN: 
0xfffd6593:  48 85 db                 testq    %rbx, %rbx

----------------
IN: 
0xfffd6596:  0f 84 7b ff ff ff        je       0xfffd6517

----------------
IN: 
0xfffd659c:  45 31 e4                 xorl     %r12d, %r12d

----------------
IN: 
0xfffd659f:  48 83 bd 60 ff ff ff 00  cmpq     $0, -0xa0(%rbp)

----------------
IN: 
0xfffd65a7:  4c 89 65 88              movq     %r12, -0x78(%rbp)

----------------
IN: 
0xfffd65ab:  74 10                    je       0xfffd65bd

----------------
IN: 
0xfffd65ad:  48 8b 85 60 ff ff ff     movq     -0xa0(%rbp), %rax

----------------
IN: 
0xfffd65b4:  48 8d 44 18 ff           leaq     -1(%rax, %rbx), %rax

----------------
IN: 
0xfffd65b9:  48 89 45 88              movq     %rax, -0x78(%rbp)

----------------
IN: 
0xfffd65bd:  41 0f b6 07              movzbl   (%r15), %eax

----------------
IN: 
0xfffd65c1:  48 8b bd 60 ff ff ff     movq     -0xa0(%rbp), %rdi

----------------
IN: 
0xfffd65c8:  48 89 45 98              movq     %rax, -0x68(%rbp)

----------------
IN: 
0xfffd65cc:  48 85 c0                 testq    %rax, %rax

----------------
IN: 
0xfffd65cf:  0f 84 7e 09 00 00        je       0xfffd6f53

----------------
IN: 
0xfffd65d5:  48 85 ff                 testq    %rdi, %rdi

----------------
IN: 
0xfffd65d8:  74 0d                    je       0xfffd65e7

----------------
IN: 
0xfffd65da:  48 8b 75 88              movq     -0x78(%rbp), %rsi

----------------
IN: 
0xfffd65de:  48 39 f7                 cmpq     %rsi, %rdi

----------------
IN: 
0xfffd65e1:  0f 83 99 09 00 00        jae      0xfffd6f80

----------------
IN: 
0xfffd65e7:  49 8d 57 01              leaq     1(%r15), %rdx

----------------
IN: 
0xfffd65eb:  48 83 f8 0d              cmpq     $0xd, %rax

----------------
IN: 
0xfffd65ef:  0f 84 2a 05 00 00        je       0xfffd6b1f

----------------
IN: 
0xfffd65f5:  48 83 f8 25              cmpq     $0x25, %rax

----------------
IN: 
0xfffd65f9:  74 35                    je       0xfffd6630

----------------
IN: 
0xfffd65fb:  48 83 f8 0a              cmpq     $0xa, %rax

----------------
IN: 
0xfffd65ff:  0f 84 53 05 00 00        je       0xfffd6b58

----------------
IN: 
0xfffd6605:  31 db                    xorl     %ebx, %ebx

----------------
IN: 
0xfffd6607:  45 31 c9                 xorl     %r9d, %r9d

----------------
IN: 
0xfffd660a:  45 31 d2                 xorl     %r10d, %r10d

----------------
IN: 
0xfffd660d:  45 31 db                 xorl     %r11d, %r11d

----------------
IN: 
0xfffd6610:  45 31 ed                 xorl     %r13d, %r13d

----------------
IN: 
0xfffd6613:  45 31 f6                 xorl     %r14d, %r14d

----------------
IN: 
0xfffd6616:  4c 8d 65 98              leaq     -0x68(%rbp), %r12

----------------
IN: 
0xfffd661a:  be 01 00 00 00           movl     $1, %esi

----------------
IN: 
0xfffd661f:  48 89 9d 70 ff ff ff     movq     %rbx, -0x90(%rbp)

----------------
IN: 
0xfffd6626:  bb 00 04 00 00           movl     $0x400, %ebx

----------------
IN: 
0xfffd662b:  e9 96 05 00 00           jmp      0xfffd6bc6

----------------
IN: 
0xfffd6bc6:  48 89 d8                 movq     %rbx, %rax

----------------
IN: 
0xfffd6bc9:  25 00 04 00 00           andl     $0x400, %eax

----------------
IN: 
0xfffd6bce:  48 83 f8 01              cmpq     $1, %rax

----------------
IN: 
0xfffd6bd2:  48 89 d8                 movq     %rbx, %rax

----------------
IN: 
0xfffd6bd5:  48 19 c9                 sbbq     %rcx, %rcx

----------------
IN: 
0xfffd6bd8:  48 89 8d 58 ff ff ff     movq     %rcx, -0xa8(%rbp)

----------------
IN: 
0xfffd6bdf:  48 89 8d 68 ff ff ff     movq     %rcx, -0x98(%rbp)

----------------
IN: 
0xfffd6be6:  48 81 a5 58 ff ff ff 00  andq     $0xffffffffffff0100, -0xa8(%rbp)
0xfffd6bee:  01 ff ff

----------------
IN: 
0xfffd6bf1:  48 83 85 68 ff ff ff 02  addq     $2, -0x98(%rbp)

----------------
IN: 
0xfffd6bf9:  48 81 85 58 ff ff ff ff  addq     $0xffff, -0xa8(%rbp)
0xfffd6c01:  ff 00 00

----------------
IN: 
0xfffd6c04:  25 00 10 00 00           andl     $0x1000, %eax

----------------
IN: 
0xfffd6c09:  48 89 85 78 ff ff ff     movq     %rax, -0x88(%rbp)

----------------
IN: 
0xfffd6c10:  75 10                    jne      0xfffd6c22

----------------
IN: 
0xfffd6c12:  48 89 d9                 movq     %rbx, %rcx

----------------
IN: 
0xfffd6c15:  49 8d 54 24 01           leaq     1(%r12), %rdx

----------------
IN: 
0xfffd6c1a:  81 e1 00 08 00 00        andl     $0x800, %ecx

----------------
IN: 
0xfffd6c20:  eb 4d                    jmp      0xfffd6c6f

----------------
IN: 
0xfffd6c6f:  44 0f b6 42 ff           movzbl   -1(%rdx), %r8d

----------------
IN: 
0xfffd6c74:  48 89 d0                 movq     %rdx, %rax

----------------
IN: 
0xfffd6c77:  45 84 c0                 testb    %r8b, %r8b

----------------
IN: 
0xfffd6c7a:  75 c5                    jne      0xfffd6c41

----------------
IN: 
0xfffd6c41:  48 39 b5 78 ff ff ff     cmpq     %rsi, -0x88(%rbp)

----------------
IN: 
0xfffd6c48:  73 34                    jae      0xfffd6c7e

----------------
IN: 
0xfffd6c4a:  0f be 00                 movsbl   (%rax), %eax

----------------
IN: 
0xfffd6c4d:  4c 8b b5 68 ff ff ff     movq     -0x98(%rbp), %r14

----------------
IN: 
0xfffd6c54:  c1 e0 08                 shll     $8, %eax

----------------
IN: 
0xfffd6c57:  4c 01 f2                 addq     %r14, %rdx

----------------
IN: 
0xfffd6c5a:  44 09 c0                 orl      %r8d, %eax

----------------
IN: 
0xfffd6c5d:  48 98                    cltq     

----------------
IN: 
0xfffd6c5f:  48 85 85 58 ff ff ff     testq    %rax, -0xa8(%rbp)

----------------
IN: 
0xfffd6c66:  74 28                    je       0xfffd6c90

----------------
IN: 
0xfffd6c68:  48 ff 85 78 ff ff ff     incq     -0x88(%rbp)

----------------
IN: 
0xfffd6c7c:  eb b4                    jmp      0xfffd6c32

----------------
IN: 
0xfffd6c32:  48 83 bd 68 ff ff ff 02  cmpq     $2, -0x98(%rbp)

----------------
IN: 
0xfffd6c3a:  75 49                    jne      0xfffd6c85

----------------
IN: 
0xfffd6c3c:  80 3a 00                 cmpb     $0, (%rdx)

----------------
IN: 
0xfffd6c3f:  74 4f                    je       0xfffd6c90

----------------
IN: 
0xfffd6c90:  48 8b 85 78 ff ff ff     movq     -0x88(%rbp), %rax

----------------
IN: 
0xfffd6c97:  48 39 c6                 cmpq     %rax, %rsi

----------------
IN: 
0xfffd6c9a:  48 0f 42 f0              cmovbq   %rax, %rsi

----------------
IN: 
0xfffd6c9e:  81 e3 01 02 00 00        andl     $0x201, %ebx

----------------
IN: 
0xfffd6ca4:  48 89 9d 50 ff ff ff     movq     %rbx, -0xb0(%rbp)

----------------
IN: 
0xfffd6cab:  49 89 f6                 movq     %rsi, %r14

----------------
IN: 
0xfffd6cae:  48 81 fb 00 02 00 00     cmpq     $0x200, %rbx

----------------
IN: 
0xfffd6cb5:  75 50                    jne      0xfffd6d07

----------------
IN: 
0xfffd6d07:  45 84 db                 testb    %r11b, %r11b

----------------
IN: 
0xfffd6d0a:  0f 84 92 00 00 00        je       0xfffd6da2

----------------
IN: 
0xfffd6da2:  48 85 ff                 testq    %rdi, %rdi

----------------
IN: 
0xfffd6da5:  0f 84 6f ff ff ff        je       0xfffd6d1a

----------------
IN: 
0xfffd6dab:  48 8b 85 78 ff ff ff     movq     -0x88(%rbp), %rax

----------------
IN: 
0xfffd6db2:  48 8b 75 88              movq     -0x78(%rbp), %rsi

----------------
IN: 
0xfffd6db6:  4c 89 f2                 movq     %r14, %rdx

----------------
IN: 
0xfffd6db9:  41 b8 01 00 00 00        movl     $1, %r8d

----------------
IN: 
0xfffd6dbf:  b9 20 00 00 00           movl     $0x20, %ecx

----------------
IN: 
0xfffd6dc4:  4c 89 8d 40 ff ff ff     movq     %r9, -0xc0(%rbp)

----------------
IN: 
0xfffd6dcb:  48 29 c2                 subq     %rax, %rdx

----------------
IN: 
0xfffd6dce:  44 88 95 4f ff ff ff     movb     %r10b, -0xb1(%rbp)

----------------
IN: 
0xfffd6dd5:  e8 37 6c ff ff           callq    0xfffcda11

----------------
IN: 
0xfffcda11:  55                       pushq    %rbp

----------------
IN: 
0xfffcda12:  48 89 f8                 movq     %rdi, %rax

----------------
IN: 
0xfffcda15:  31 ff                    xorl     %edi, %edi

----------------
IN: 
0xfffcda17:  48 89 e5                 movq     %rsp, %rbp

----------------
IN: 
0xfffcda1a:  53                       pushq    %rbx

----------------
IN: 
0xfffcda1b:  0f b6 dd                 movzbl   %ch, %ebx

----------------
IN: 
0xfffcda1e:  48 39 d7                 cmpq     %rdx, %rdi

----------------
IN: 
0xfffcda21:  7d 18                    jge      0xfffcda3b

----------------
IN: 
0xfffcda3b:  5b                       popq     %rbx

----------------
IN: 
0xfffcda3c:  5d                       popq     %rbp

----------------
IN: 
0xfffcda3d:  c3                       retq     

----------------
IN: 
0xfffd6dda:  45 84 ed                 testb    %r13b, %r13b

----------------
IN: 
0xfffd6ddd:  44 8a 95 4f ff ff ff     movb     -0xb1(%rbp), %r10b

----------------
IN: 
0xfffd6de4:  4c 8b 8d 40 ff ff ff     movq     -0xc0(%rbp), %r9

----------------
IN: 
0xfffd6deb:  48 89 c7                 movq     %rax, %rdi

----------------
IN: 
0xfffd6dee:  74 32                    je       0xfffd6e22

----------------
IN: 
0xfffd6e22:  31 db                    xorl     %ebx, %ebx

----------------
IN: 
0xfffd6e24:  45 84 ed                 testb    %r13b, %r13b

----------------
IN: 
0xfffd6e27:  0f 95 c3                 setne    %bl

----------------
IN: 
0xfffd6e2a:  48 8b 85 78 ff ff ff     movq     -0x88(%rbp), %rax

----------------
IN: 
0xfffd6e31:  48 39 c3                 cmpq     %rax, %rbx

----------------
IN: 
0xfffd6e34:  0f 83 d9 00 00 00        jae      0xfffd6f13

----------------
IN: 
0xfffd6e3a:  41 80 3c 24 00           cmpb     $0, (%r12)

----------------
IN: 
0xfffd6e3f:  0f 84 b8 00 00 00        je       0xfffd6efd

----------------
IN: 
0xfffd6e45:  48 85 ff                 testq    %rdi, %rdi

----------------
IN: 
0xfffd6e48:  74 3f                    je       0xfffd6e89

----------------
IN: 
0xfffd6e4a:  48 8b 75 88              movq     -0x78(%rbp), %rsi

----------------
IN: 
0xfffd6e4e:  41 0f b7 0c 24           movzwl   (%r12), %ecx

----------------
IN: 
0xfffd6e53:  41 b8 01 00 00 00        movl     $1, %r8d

----------------
IN: 
0xfffd6e59:  ba 01 00 00 00           movl     $1, %edx

----------------
IN: 
0xfffd6e5e:  48 23 8d 58 ff ff ff     andq     -0xa8(%rbp), %rcx

----------------
IN: 
0xfffd6e65:  4c 89 8d 40 ff ff ff     movq     %r9, -0xc0(%rbp)

----------------
IN: 
0xfffd6e6c:  44 88 95 4f ff ff ff     movb     %r10b, -0xb1(%rbp)

----------------
IN: 
0xfffd6e73:  e8 99 6b ff ff           callq    0xfffcda11

----------------
IN: 
0xfffcda23:  48 39 f0                 cmpq     %rsi, %rax

----------------
IN: 
0xfffcda26:  73 13                    jae      0xfffcda3b

----------------
IN: 
0xfffcda28:  88 08                    movb     %cl, (%rax)

----------------
IN: 
0xfffcda2a:  49 83 f8 01              cmpq     $1, %r8

----------------
IN: 
0xfffcda2e:  74 03                    je       0xfffcda33

----------------
IN: 
0xfffcda33:  4c 01 c0                 addq     %r8, %rax

----------------
IN: 
0xfffcda36:  48 ff c7                 incq     %rdi

----------------
IN: 
0xfffcda39:  eb e3                    jmp      0xfffcda1e

----------------
IN: 
0xfffd6e78:  4c 8b 8d 40 ff ff ff     movq     -0xc0(%rbp), %r9

----------------
IN: 
0xfffd6e7f:  44 8a 95 4f ff ff ff     movb     -0xb1(%rbp), %r10b

----------------
IN: 
0xfffd6e86:  48 89 c7                 movq     %rax, %rdi

----------------
IN: 
0xfffd6e89:  48 8b 85 68 ff ff ff     movq     -0x98(%rbp), %rax

----------------
IN: 
0xfffd6e90:  4c 8d 6b 01              leaq     1(%rbx), %r13

----------------
IN: 
0xfffd6e94:  49 01 c4                 addq     %rax, %r12

----------------
IN: 
0xfffd6e97:  45 84 d2                 testb    %r10b, %r10b

----------------
IN: 
0xfffd6e9a:  74 59                    je       0xfffd6ef5

----------------
IN: 
0xfffd6ef5:  4c 89 eb                 movq     %r13, %rbx

----------------
IN: 
0xfffd6ef8:  e9 2d ff ff ff           jmp      0xfffd6e2a

----------------
IN: 
0xfffd6f13:  48 81 bd 50 ff ff ff 01  cmpq     $0x201, -0xb0(%rbp)
0xfffd6f1b:  02 00 00

----------------
IN: 
0xfffd6f1e:  75 26                    jne      0xfffd6f46

----------------
IN: 
0xfffd6f46:  41 0f b6 47 01           movzbl   1(%r15), %eax

----------------
IN: 
0xfffd6f4b:  49 ff c7                 incq     %r15

----------------
IN: 
0xfffd6f4e:  e9 75 f6 ff ff           jmp      0xfffd65c8

----------------
IN: 
0xfffd6630:  45 31 c0                 xorl     %r8d, %r8d

----------------
IN: 
0xfffd6633:  48 8b 45 80              movq     -0x80(%rbp), %rax

----------------
IN: 
0xfffd6637:  4d 89 f9                 movq     %r15, %r9

----------------
IN: 
0xfffd663a:  45 31 f6                 xorl     %r14d, %r14d

----------------
IN: 
0xfffd663d:  4c 89 85 70 ff ff ff     movq     %r8, -0x90(%rbp)

----------------
IN: 
0xfffd6644:  be 01 00 00 00           movl     $1, %esi

----------------
IN: 
0xfffd6649:  31 db                    xorl     %ebx, %ebx

----------------
IN: 
0xfffd664b:  45 0f be 41 01           movsbl   1(%r9), %r8d

----------------
IN: 
0xfffd6650:  49 ff c7                 incq     %r15

----------------
IN: 
0xfffd6653:  41 0f b6 c8              movzbl   %r8b, %ecx

----------------
IN: 
0xfffd6657:  41 0f b6 d0              movzbl   %r8b, %edx

----------------
IN: 
0xfffd665b:  83 f9 39                 cmpl     $0x39, %ecx

----------------
IN: 
0xfffd665e:  7f 3a                    jg       0xfffd669a

----------------
IN: 
0xfffd669a:  41 81 e0 df 00 00 00     andl     $0xdf, %r8d

----------------
IN: 
0xfffd66a1:  41 83 f8 4c              cmpl     $0x4c, %r8d

----------------
IN: 
0xfffd66a5:  0f 85 9c 00 00 00        jne      0xfffd6747

----------------
IN: 
0xfffd6747:  48 89 55 98              movq     %rdx, -0x68(%rbp)

----------------
IN: 
0xfffd674b:  49 8d 4f 01              leaq     1(%r15), %rcx

----------------
IN: 
0xfffd674f:  48 83 fa 78              cmpq     $0x78, %rdx

----------------
IN: 
0xfffd6753:  0f 87 aa 03 00 00        ja       0xfffd6b03

----------------
IN: 
0xfffd6759:  48 83 fa 57              cmpq     $0x57, %rdx

----------------
IN: 
0xfffd675d:  77 4b                    ja       0xfffd67aa

----------------
IN: 
0xfffd67aa:  48 83 ea 58              subq     $0x58, %rdx

----------------
IN: 
0xfffd67ae:  48 83 fa 20              cmpq     $0x20, %rdx

----------------
IN: 
0xfffd67b2:  0f 87 4b 03 00 00        ja       0xfffd6b03

----------------
IN: 
0xfffd67b8:  48 8d 0d c5 5a 00 00     leaq     0x5ac5(%rip), %rcx

----------------
IN: 
0xfffd67bf:  48 63 14 91              movslq   (%rcx, %rdx, 4), %rdx

----------------
IN: 
0xfffd67c3:  48 01 ca                 addq     %rcx, %rdx

----------------
IN: 
0xfffd67c6:  ff e2                    jmpq     *%rdx

----------------
IN: 
0xfffd67d4:  80 cb 80                 orb      $0x80, %bl

----------------
IN: 
0xfffd67d7:  48 89 d9                 movq     %rbx, %rcx

----------------
IN: 
0xfffd67da:  80 e3 80                 andb     $0x80, %bl

----------------
IN: 
0xfffd67dd:  75 0c                    jne      0xfffd67eb

----------------
IN: 
0xfffd67eb:  48 8d 58 08              leaq     8(%rax), %rbx

----------------
IN: 
0xfffd67ef:  48 89 ca                 movq     %rcx, %rdx

----------------
IN: 
0xfffd67f2:  48 89 5d 80              movq     %rbx, -0x80(%rbp)

----------------
IN: 
0xfffd67f6:  83 e2 10                 andl     $0x10, %edx

----------------
IN: 
0xfffd67f9:  75 05                    jne      0xfffd6800

----------------
IN: 
0xfffd67fb:  4c 63 00                 movslq   (%rax), %r8

----------------
IN: 
0xfffd67fe:  eb 03                    jmp      0xfffd6803

----------------
IN: 
0xfffd6803:  41 b5 2b                 movb     $0x2b, %r13b

----------------
IN: 
0xfffd6806:  f6 c1 02                 testb    $2, %cl

----------------
IN: 
0xfffd6809:  75 0f                    jne      0xfffd681a

----------------
IN: 
0xfffd680b:  49 89 cd                 movq     %rcx, %r13

----------------
IN: 
0xfffd680e:  49 c1 ed 02              shrq     $2, %r13

----------------
IN: 
0xfffd6812:  41 83 e5 01              andl     $1, %r13d

----------------
IN: 
0xfffd6816:  41 c1 e5 05              shll     $5, %r13d

----------------
IN: 
0xfffd681a:  48 89 c8                 movq     %rcx, %rax

----------------
IN: 
0xfffd681d:  83 e0 08                 andl     $8, %eax

----------------
IN: 
0xfffd6820:  41 0f 95 c2              setne    %r10b

----------------
IN: 
0xfffd6824:  f6 c1 80                 testb    $0x80, %cl

----------------
IN: 
0xfffd6827:  75 46                    jne      0xfffd686f

----------------
IN: 
0xfffd686f:  4d 85 c0                 testq    %r8, %r8

----------------
IN: 
0xfffd6872:  79 08                    jns      0xfffd687c

----------------
IN: 
0xfffd6874:  48 85 d2                 testq    %rdx, %rdx

----------------
IN: 
0xfffd6877:  75 03                    jne      0xfffd687c

----------------
IN: 
0xfffd6879:  45 89 c0                 movl     %r8d, %r8d

----------------
IN: 
0xfffd687c:  41 b9 10 00 00 00        movl     $0x10, %r9d

----------------
IN: 
0xfffd6882:  45 31 d2                 xorl     %r10d, %r10d

----------------
IN: 
0xfffd6885:  c6 45 aa 00              movb     $0, -0x56(%rbp)

----------------
IN: 
0xfffd6889:  4c 89 c0                 movq     %r8, %rax

----------------
IN: 
0xfffd688c:  4c 8d 5d aa              leaq     -0x56(%rbp), %r11

----------------
IN: 
0xfffd6890:  4c 8d 25 7d 5b 00 00     leaq     0x5b7d(%rip), %r12

----------------
IN: 
0xfffd6897:  31 d2                    xorl     %edx, %edx

----------------
IN: 
0xfffd6899:  48 89 c3                 movq     %rax, %rbx

----------------
IN: 
0xfffd689c:  49 ff c3                 incq     %r11

----------------
IN: 
0xfffd689f:  49 f7 f1                 divq     %r9

----------------
IN: 
0xfffd68a2:  41 8a 14 14              movb     (%r12, %rdx), %dl

----------------
IN: 
0xfffd68a6:  41 88 13                 movb     %dl, (%r11)

----------------
IN: 
0xfffd68a9:  4c 39 cb                 cmpq     %r9, %rbx

----------------
IN: 
0xfffd68ac:  73 e9                    jae      0xfffd6897

----------------
IN: 
0xfffd68ae:  45 31 f6                 xorl     %r14d, %r14d

----------------
IN: 
0xfffd68b1:  49 09 f0                 orq      %rsi, %r8

----------------
IN: 
0xfffd68b4:  4c 8d 65 aa              leaq     -0x56(%rbp), %r12

----------------
IN: 
0xfffd68b8:  74 06                    je       0xfffd68c0

----------------
IN: 
0xfffd68ba:  4d 89 de                 movq     %r11, %r14

----------------
IN: 
0xfffd68bd:  4d 29 e6                 subq     %r12, %r14

----------------
IN: 
0xfffd68c0:  41 b8 03 00 00 00        movl     $3, %r8d

----------------
IN: 
0xfffd68c6:  4c 89 f0                 movq     %r14, %rax

----------------
IN: 
0xfffd68c9:  31 d2                    xorl     %edx, %edx

----------------
IN: 
0xfffd68cb:  4d 01 f4                 addq     %r14, %r12

----------------
IN: 
0xfffd68ce:  49 f7 f0                 divq     %r8

----------------
IN: 
0xfffd68d1:  49 89 d1                 movq     %rdx, %r9

----------------
IN: 
0xfffd68d4:  48 85 d2                 testq    %rdx, %rdx

----------------
IN: 
0xfffd68d7:  74 06                    je       0xfffd68df

----------------
IN: 
0xfffd68d9:  49 29 d0                 subq     %rdx, %r8

----------------
IN: 
0xfffd68dc:  4d 89 c1                 movq     %r8, %r9

----------------
IN: 
0xfffd68df:  4d 85 f6                 testq    %r14, %r14

----------------
IN: 
0xfffd68e2:  74 17                    je       0xfffd68fb

----------------
IN: 
0xfffd68e4:  45 84 d2                 testb    %r10b, %r10b

----------------
IN: 
0xfffd68e7:  74 12                    je       0xfffd68fb

----------------
IN: 
0xfffd68fb:  45 84 ed                 testb    %r13b, %r13b

----------------
IN: 
0xfffd68fe:  74 06                    je       0xfffd6906

----------------
IN: 
0xfffd6906:  48 89 cb                 movq     %rcx, %rbx

----------------
IN: 
0xfffd6909:  41 b3 01                 movb     $1, %r11b

----------------
IN: 
0xfffd690c:  80 cf 10                 orb      $0x10, %bh

----------------
IN: 
0xfffd690f:  f6 c1 20                 testb    $0x20, %cl

----------------
IN: 
0xfffd6912:  0f 84 ae 02 00 00        je       0xfffd6bc6

----------------
IN: 
0xfffd6c22:  48 f7 9d 68 ff ff ff     negq     -0x98(%rbp)

----------------
IN: 
0xfffd6c29:  4c 89 b5 78 ff ff ff     movq     %r14, -0x88(%rbp)

----------------
IN: 
0xfffd6c30:  eb 5e                    jmp      0xfffd6c90

----------------
IN: 
0xfffd6d10:  45 84 ed                 testb    %r13b, %r13b

----------------
IN: 
0xfffd6d13:  74 43                    je       0xfffd6d58

----------------
IN: 
0xfffd6d58:  48 85 ff                 testq    %rdi, %rdi

----------------
IN: 
0xfffd6d5b:  74 bd                    je       0xfffd6d1a

----------------
IN: 
0xfffd6d5d:  48 8b 85 78 ff ff ff     movq     -0x88(%rbp), %rax

----------------
IN: 
0xfffd6d64:  48 8b 75 88              movq     -0x78(%rbp), %rsi

----------------
IN: 
0xfffd6d68:  4c 89 f2                 movq     %r14, %rdx

----------------
IN: 
0xfffd6d6b:  41 b8 01 00 00 00        movl     $1, %r8d

----------------
IN: 
0xfffd6d71:  b9 30 00 00 00           movl     $0x30, %ecx

----------------
IN: 
0xfffd6d76:  4c 89 8d 40 ff ff ff     movq     %r9, -0xc0(%rbp)

----------------
IN: 
0xfffd6d7d:  48 29 c2                 subq     %rax, %rdx

----------------
IN: 
0xfffd6d80:  44 88 95 4f ff ff ff     movb     %r10b, -0xb1(%rbp)

----------------
IN: 
0xfffd6d87:  e8 85 6c ff ff           callq    0xfffcda11

----------------
IN: 
0xfffd6d8c:  44 8a 95 4f ff ff ff     movb     -0xb1(%rbp), %r10b

----------------
IN: 
0xfffd6d93:  4c 8b 8d 40 ff ff ff     movq     -0xc0(%rbp), %r9

----------------
IN: 
0xfffd6d9a:  48 89 c7                 movq     %rax, %rdi

----------------
IN: 
0xfffd6d9d:  e9 80 00 00 00           jmp      0xfffd6e22

----------------
IN: 
0xfffd6b58:  41 0f b6 4f 01           movzbl   1(%r15), %ecx

----------------
IN: 
0xfffd6b5d:  4c 8d 25 88 4c 00 00     leaq     0x4c88(%rip), %r12

----------------
IN: 
0xfffd6b64:  48 89 4d 98              movq     %rcx, -0x68(%rbp)

----------------
IN: 
0xfffd6b68:  83 f9 0d                 cmpl     $0xd, %ecx

----------------
IN: 
0xfffd6b6b:  4c 0f 44 fa              cmoveq   %rdx, %r15

----------------
IN: 
0xfffd6b6f:  45 31 c9                 xorl     %r9d, %r9d

----------------
IN: 
0xfffd6b72:  45 31 d2                 xorl     %r10d, %r10d

----------------
IN: 
0xfffd6b75:  45 31 db                 xorl     %r11d, %r11d

----------------
IN: 
0xfffd6b78:  45 31 ed                 xorl     %r13d, %r13d

----------------
IN: 
0xfffd6b7b:  45 31 f6                 xorl     %r14d, %r14d

----------------
IN: 
0xfffd6b7e:  31 c9                    xorl     %ecx, %ecx

----------------
IN: 
0xfffd6b80:  be 01 00 00 00           movl     $1, %esi

----------------
IN: 
0xfffd6b85:  31 db                    xorl     %ebx, %ebx

----------------
IN: 
0xfffd6b87:  48 89 8d 70 ff ff ff     movq     %rcx, -0x90(%rbp)

----------------
IN: 
0xfffd6b8e:  eb 36                    jmp      0xfffd6bc6

----------------
IN: 
0xfffd6c7e:  48 85 c9                 testq    %rcx, %rcx

----------------
IN: 
0xfffd6c81:  74 c7                    je       0xfffd6c4a

----------------
IN: 
0xfffd6c85:  48 c7 85 68 ff ff ff 01  movq     $1, -0x98(%rbp)
0xfffd6c8d:  00 00 00

----------------
IN: 
0xfffd6f53:  48 85 ff                 testq    %rdi, %rdi

----------------
IN: 
0xfffd6f56:  75 28                    jne      0xfffd6f80

----------------
IN: 
0xfffd6f80:  48 8b 75 88              movq     -0x78(%rbp), %rsi

----------------
IN: 
0xfffd6f84:  31 c9                    xorl     %ecx, %ecx

----------------
IN: 
0xfffd6f86:  ba 01 00 00 00           movl     $1, %edx

----------------
IN: 
0xfffd6f8b:  48 89 7d 88              movq     %rdi, -0x78(%rbp)

----------------
IN: 
0xfffd6f8f:  41 b8 01 00 00 00        movl     $1, %r8d

----------------
IN: 
0xfffd6f95:  48 ff c6                 incq     %rsi

----------------
IN: 
0xfffd6f98:  e8 74 6a ff ff           callq    0xfffcda11

----------------
IN: 
0xfffd6f9d:  48 8b 45 88              movq     -0x78(%rbp), %rax

----------------
IN: 
0xfffd6fa1:  48 8b b5 60 ff ff ff     movq     -0xa0(%rbp), %rsi

----------------
IN: 
0xfffd6fa8:  48 29 f0                 subq     %rsi, %rax

----------------
IN: 
0xfffd6fab:  eb 5d                    jmp      0xfffd700a

----------------
IN: 
0xfffd700a:  48 8d 65 d8              leaq     -0x28(%rbp), %rsp

----------------
IN: 
0xfffd700e:  5b                       popq     %rbx

----------------
IN: 
0xfffd700f:  41 5c                    popq     %r12

----------------
IN: 
0xfffd7011:  41 5d                    popq     %r13

----------------
IN: 
0xfffd7013:  41 5e                    popq     %r14

----------------
IN: 
0xfffd7015:  41 5f                    popq     %r15

----------------
IN: 
0xfffd7017:  5d                       popq     %rbp

----------------
IN: 
0xfffd7018:  c3                       retq     

----------------
IN: 
0xfffd7045:  4c 8b 85 f8 fd ff ff     movq     -0x208(%rbp), %r8

----------------
IN: 
0xfffd704c:  48 83 ec 20              subq     $0x20, %rsp

----------------
IN: 
0xfffd7050:  b9 02 04 00 00           movl     $0x402, %ecx

----------------
IN: 
0xfffd7055:  48 89 c2                 movq     %rax, %rdx

----------------
IN: 
0xfffd7058:  e8 a6 68 ff ff           callq    0xfffcd903

----------------
IN: 
0xfffcd903:  80 3c 25 00 b0 80 00 02  cmpb     $2, 0x80b000

----------------
IN: 
0xfffcd90b:  75 2b                    jne      0xfffcd938

----------------
IN: 
0xfffcd938:  e9 72 aa 00 00           jmp      0xfffd83af

----------------
IN: 
0xfffd83af:  48 87 ca                 xchgq    %rcx, %rdx

----------------
IN: 
0xfffd83b2:  49 87 f0                 xchgq    %rsi, %r8

----------------
IN: 
0xfffd83b5:  e8 4a ff ff ff           callq    0xfffd8304

----------------
IN: 
0xfffd8304:  53                       pushq    %rbx

----------------
IN: 
0xfffd8305:  51                       pushq    %rcx

----------------
IN: 
0xfffd8306:  52                       pushq    %rdx

----------------
IN: 
0xfffd8307:  b8 01 00 00 00           movl     $1, %eax

----------------
IN: 
0xfffd830c:  0f a2                    cpuid    

----------------
IN: 
0xfffd830e:  0f ba e1 1f              btl      $0x1f, %ecx

----------------
IN: 
0xfffd8312:  73 2a                    jae      0xfffd833e

----------------
IN: 
0xfffd8314:  b8 00 00 00 80           movl     $0x80000000, %eax

----------------
IN: 
0xfffd8319:  0f a2                    cpuid    

----------------
IN: 
0xfffd831b:  3d 1f 00 00 80           cmpl     $0x8000001f, %eax

----------------
IN: 
0xfffd8320:  7c 1c                    jl       0xfffd833e

----------------
IN: 
0xfffd833e:  31 c0                    xorl     %eax, %eax

----------------
IN: 
0xfffd8340:  5a                       popq     %rdx

----------------
IN: 
0xfffd8341:  59                       popq     %rcx

----------------
IN: 
0xfffd8342:  5b                       popq     %rbx

----------------
IN: 
0xfffd8343:  c3                       retq     

----------------
IN: 
0xfffd83ba:  85 c0                    testl    %eax, %eax

----------------
IN: 
0xfffd83bc:  75 05                    jne      0xfffd83c3

----------------
IN: 
0xfffd83be:  fc                       cld      

----------------
IN: 
0xfffd83bf:  f3 6e                    rep outsb (%rsi), %dx

----------------
IN: 
0xfffd83c1:  eb 0a                    jmp      0xfffd83cd

----------------
IN: 
0xfffd83cd:  4c 89 c6                 movq     %r8, %rsi

----------------
IN: 
0xfffd83d0:  c3                       retq     

----------------
IN: 
0xfffd705d:  48 83 c4 20              addq     $0x20, %rsp

----------------
IN: 
0xfffd7061:  c9                       leave    

----------------
IN: 
0xfffd7062:  c3                       retq     

----------------
IN: 
0xfffcfa80:  48 83 c4 30              addq     $0x30, %rsp

----------------
IN: 
0xfffcfa84:  5e                       popq     %rsi

----------------
IN: 
0xfffcfa85:  5f                       popq     %rdi

----------------
IN: 
0xfffcfa86:  5d                       popq     %rbp

----------------
IN: 
0xfffcfa87:  c3                       retq     

----------------
IN: 
0xfffd34c8:  e8 57 4f 00 00           callq    0xfffd8424

----------------
IN: 
0xfffd8424:  9b                       wait     

----------------
IN: 
0xfffd8425:  db e3                    fninit   

----------------
IN: 
0xfffd8427:  d9 2d c7 43 00 00        fldcw    0x43c7(%rip)

----------------
IN: 
0xfffd842d:  0f 20 e0                 movq     %cr4, %rax

----------------
IN: 
0xfffd8430:  48 0d 00 02 00 00        orq      $0x200, %rax

----------------
IN: 
0xfffd8436:  0f 22 e0                 movq     %rax, %cr4

----------------
IN: 
0xfffd8439:  0f ae 15 b6 43 00 00     ldmxcsr  0x43b6(%rip)

----------------
IN: 
0xfffd8440:  c3                       retq     

----------------
IN: 
0xfffd34cd:  0f 20 d8                 movq     %cr3, %rax

----------------
IN: 
0xfffd34d0:  48 3d 00 00 80 00        cmpq     $0x800000, %rax

----------------
IN: 
0xfffd34d6:  74 18                    je       0xfffd34f0

----------------
IN: 
0xfffd34f0:  48 81 7d 18 00 00 82 00  cmpq     $0x820000, 0x18(%rbp)

----------------
IN: 
0xfffd34f8:  74 18                    je       0xfffd3512

----------------
IN: 
0xfffd3512:  66 c7 85 50 fd ff ff 48  movw     $0x48, -0x2b0(%rbp)
0xfffd351a:  00

----------------
IN: 
0xfffd351b:  48 8b 45 18              movq     0x18(%rbp), %rax

----------------
IN: 
0xfffd351f:  48 c7 85 70 fd ff ff 00  movq     $0x10000, -0x290(%rbp)
0xfffd3527:  00 01 00

----------------
IN: 
0xfffd352a:  48 2d 00 00 01 00        subq     $0x10000, %rax

----------------
IN: 
0xfffd3530:  48 c7 85 80 fd ff ff 00  movq     $0x8000, -0x280(%rbp)
0xfffd3538:  80 00 00

----------------
IN: 
0xfffd353b:  48 89 85 68 fd ff ff     movq     %rax, -0x298(%rbp)

----------------
IN: 
0xfffd3542:  48 89 85 78 fd ff ff     movq     %rax, -0x288(%rbp)

----------------
IN: 
0xfffd3549:  48 8b 45 18              movq     0x18(%rbp), %rax

----------------
IN: 
0xfffd354d:  48 c7 85 90 fd ff ff 00  movq     $0x8000, -0x270(%rbp)
0xfffd3555:  80 00 00

----------------
IN: 
0xfffd3558:  48 2d 00 80 00 00        subq     $0x8000, %rax

----------------
IN: 
0xfffd355e:  48 89 85 88 fd ff ff     movq     %rax, -0x278(%rbp)

----------------
IN: 
0xfffd3565:  48 8b 45 10              movq     0x10(%rbp), %rax

----------------
IN: 
0xfffd3569:  48 89 85 58 fd ff ff     movq     %rax, -0x2a8(%rbp)

----------------
IN: 
0xfffd3570:  48 8b 40 20              movq     0x20(%rax), %rax

----------------
IN: 
0xfffd3574:  48 89 85 60 fd ff ff     movq     %rax, -0x2a0(%rbp)

----------------
IN: 
0xfffd357b:  48 8d 85 2c fd ff ff     leaq     -0x2d4(%rbp), %rax

----------------
IN: 
0xfffd3582:  80 3c 25 00 b0 80 00 01  cmpb     $1, 0x80b000

----------------
IN: 
0xfffd358a:  48 89 85 e8 fc ff ff     movq     %rax, -0x318(%rbp)

----------------
IN: 
0xfffd3591:  0f 85 9e 02 00 00        jne      0xfffd3835

----------------
IN: 
0xfffd3835:  ba ff 00 00 00           movl     $0xff, %edx

----------------
IN: 
0xfffd383a:  b9 21 00 00 00           movl     $0x21, %ecx

----------------
IN: 
0xfffd383f:  e8 07 a0 ff ff           callq    0xfffcd84b

----------------
IN: 
0xfffd3844:  ba ff 00 00 00           movl     $0xff, %edx

----------------
IN: 
0xfffd3849:  b9 a1 00 00 00           movl     $0xa1, %ecx

----------------
IN: 
0xfffd384e:  e8 f8 9f ff ff           callq    0xfffcd84b

----------------
IN: 
0xfffd3853:  31 c9                    xorl     %ecx, %ecx

----------------
IN: 
0xfffd3855:  41 b9 05 00 00 00        movl     $5, %r9d

----------------
IN: 
0xfffd385b:  83 ca ff                 orl      $0xffffffff, %edx

----------------
IN: 
0xfffd385e:  41 b8 01 00 00 00        movl     $1, %r8d

----------------
IN: 
0xfffd3864:  e8 34 2b 00 00           callq    0xfffd639d

----------------
IN: 
0xfffd639d:  55                       pushq    %rbp

----------------
IN: 
0xfffd639e:  48 89 e5                 movq     %rsp, %rbp

----------------
IN: 
0xfffd63a1:  41 55                    pushq    %r13

----------------
IN: 
0xfffd63a3:  41 54                    pushq    %r12

----------------
IN: 
0xfffd63a5:  45 89 cc                 movl     %r9d, %r12d

----------------
IN: 
0xfffd63a8:  57                       pushq    %rdi

----------------
IN: 
0xfffd63a9:  89 d7                    movl     %edx, %edi

----------------
IN: 
0xfffd63ab:  56                       pushq    %rsi

----------------
IN: 
0xfffd63ac:  48 89 ce                 movq     %rcx, %rsi

----------------
IN: 
0xfffd63af:  b9 01 00 00 00           movl     $1, %ecx

----------------
IN: 
0xfffd63b4:  53                       pushq    %rbx

----------------
IN: 
0xfffd63b5:  48 83 ec 28              subq     $0x28, %rsp

----------------
IN: 
0xfffd63b9:  e8 b6 ff ff ff           callq    0xfffd6374

----------------
IN: 
0xfffd6374:  55                       pushq    %rbp

----------------
IN: 
0xfffd6375:  b9 f0 00 00 00           movl     $0xf0, %ecx

----------------
IN: 
0xfffd637a:  48 89 e5                 movq     %rsp, %rbp

----------------
IN: 
0xfffd637d:  48 83 ec 20              subq     $0x20, %rsp

----------------
IN: 
0xfffd6381:  e8 db a7 ff ff           callq    0xfffd0b61

----------------
IN: 
0xfffd0b61:  55                       pushq    %rbp

----------------
IN: 
0xfffd0b62:  48 89 e5                 movq     %rsp, %rbp

----------------
IN: 
0xfffd0b65:  57                       pushq    %rdi

----------------
IN: 
0xfffd0b66:  48 89 cf                 movq     %rcx, %rdi

----------------
IN: 
0xfffd0b69:  56                       pushq    %rsi

----------------
IN: 
0xfffd0b6a:  48 83 ec 20              subq     $0x20, %rsp

----------------
IN: 
0xfffd0b6e:  e8 b4 d8 ff ff           callq    0xfffce427

----------------
IN: 
0xfffce427:  55                       pushq    %rbp

----------------
IN: 
0xfffce428:  48 89 e5                 movq     %rsp, %rbp

----------------
IN: 
0xfffce42b:  57                       pushq    %rdi

----------------
IN: 
0xfffce42c:  56                       pushq    %rsi

----------------
IN: 
0xfffce42d:  53                       pushq    %rbx

----------------
IN: 
0xfffce42e:  48 83 ec 28              subq     $0x28, %rsp

----------------
IN: 
0xfffce432:  e8 87 ff ff ff           callq    0xfffce3be

----------------
IN: 
0xfffce3be:  55                       pushq    %rbp

----------------
IN: 
0xfffce3bf:  45 31 c9                 xorl     %r9d, %r9d

----------------
IN: 
0xfffce3c2:  45 31 c0                 xorl     %r8d, %r8d

----------------
IN: 
0xfffce3c5:  b9 01 00 00 00           movl     $1, %ecx

----------------
IN: 
0xfffce3ca:  48 89 e5                 movq     %rsp, %rbp

----------------
IN: 
0xfffce3cd:  48 83 ec 18              subq     $0x18, %rsp

----------------
IN: 
0xfffce3d1:  6a 00                    pushq    $0

----------------
IN: 
0xfffce3d3:  48 8d 55 fc              leaq     -4(%rbp), %rdx

----------------
IN: 
0xfffce3d7:  48 83 ec 20              subq     $0x20, %rsp

----------------
IN: 
0xfffce3db:  e8 34 a1 00 00           callq    0xfffd8514

----------------
IN: 
0xfffd8514:  53                       pushq    %rbx

----------------
IN: 
0xfffd8515:  89 c8                    movl     %ecx, %eax

----------------
IN: 
0xfffd8517:  50                       pushq    %rax

----------------
IN: 
0xfffd8518:  52                       pushq    %rdx

----------------
IN: 
0xfffd8519:  0f a2                    cpuid    

----------------
IN: 
0xfffd851b:  4d 85 c9                 testq    %r9, %r9

----------------
IN: 
0xfffd851e:  74 03                    je       0xfffd8523

----------------
IN: 
0xfffd8523:  59                       popq     %rcx

----------------
IN: 
0xfffd8524:  e3 02                    jrcxz    0xfffd8528

----------------
IN: 
0xfffd8526:  89 01                    movl     %eax, (%rcx)

----------------
IN: 
0xfffd8528:  4c 89 c1                 movq     %r8, %rcx

----------------
IN: 
0xfffd852b:  e3 02                    jrcxz    0xfffd852f

----------------
IN: 
0xfffd852f:  48 8b 4c 24 38           movq     0x38(%rsp), %rcx

----------------
IN: 
0xfffd8534:  e3 02                    jrcxz    0xfffd8538

----------------
IN: 
0xfffd8538:  58                       popq     %rax

----------------
IN: 
0xfffd8539:  5b                       popq     %rbx

----------------
IN: 
0xfffd853a:  c3                       retq     

----------------
IN: 
0xfffce3e0:  8b 45 fc                 movl     -4(%rbp), %eax

----------------
IN: 
0xfffce3e3:  48 83 c4 30              addq     $0x30, %rsp

----------------
IN: 
0xfffce3e7:  c9                       leave    

----------------
IN: 
0xfffce3e8:  25 ff 0f 00 00           andl     $0xfff, %eax

----------------
IN: 
0xfffce3ed:  48 c1 e8 08              shrq     $8, %rax

----------------
IN: 
0xfffce3f1:  48 83 e8 04              subq     $4, %rax

----------------
IN: 
0xfffce3f5:  48 83 f8 01              cmpq     $1, %rax

----------------
IN: 
0xfffce3f9:  0f 97 c0                 seta     %al

----------------
IN: 
0xfffce3fc:  c3                       retq     

----------------
IN: 
0xfffce437:  84 c0                    testb    %al, %al

----------------
IN: 
0xfffce439:  75 07                    jne      0xfffce442

----------------
IN: 
0xfffce442:  bf 1b 00 00 00           movl     $0x1b, %edi

----------------
IN: 
0xfffce447:  e8 5d f5 ff ff           callq    0xfffcd9a9

----------------
IN: 
0xfffcd9a9:  55                       pushq    %rbp

----------------
IN: 
0xfffcd9aa:  48 89 e5                 movq     %rsp, %rbp

----------------
IN: 
0xfffcd9ad:  53                       pushq    %rbx

----------------
IN: 
0xfffcd9ae:  89 fb                    movl     %edi, %ebx

----------------
IN: 
0xfffcd9b0:  48 83 ec 18              subq     $0x18, %rsp

----------------
IN: 
0xfffcd9b4:  e8 18 fd ff ff           callq    0xfffcd6d1

----------------
IN: 
0xfffcd6d1:  55                       pushq    %rbp

----------------
IN: 
0xfffcd6d2:  31 c9                    xorl     %ecx, %ecx

----------------
IN: 
0xfffcd6d4:  48 89 e5                 movq     %rsp, %rbp

----------------
IN: 
0xfffcd6d7:  41 56                    pushq    %r14

----------------
IN: 
0xfffcd6d9:  41 55                    pushq    %r13

----------------
IN: 
0xfffcd6db:  4c 8d 75 d4              leaq     -0x2c(%rbp), %r14

----------------
IN: 
0xfffcd6df:  4c 8d 6d d0              leaq     -0x30(%rbp), %r13

----------------
IN: 
0xfffcd6e3:  41 54                    pushq    %r12

----------------
IN: 
0xfffcd6e5:  4c 8d 65 cc              leaq     -0x34(%rbp), %r12

----------------
IN: 
0xfffcd6e9:  48 8d 55 d8              leaq     -0x28(%rbp), %rdx

----------------
IN: 
0xfffcd6ed:  4d 89 e9                 movq     %r13, %r9

----------------
IN: 
0xfffcd6f0:  53                       pushq    %rbx

----------------
IN: 
0xfffcd6f1:  4d 89 e0                 movq     %r12, %r8

----------------
IN: 
0xfffcd6f4:  89 fb                    movl     %edi, %ebx

----------------
IN: 
0xfffcd6f6:  48 83 ec 28              subq     $0x28, %rsp

----------------
IN: 
0xfffcd6fa:  41 56                    pushq    %r14

----------------
IN: 
0xfffcd6fc:  48 83 ec 20              subq     $0x20, %rsp

----------------
IN: 
0xfffcd700:  e8 0f ae 00 00           callq    0xfffd8514

----------------
IN: 
0xfffd8520:  41 89 09                 movl     %ecx, (%r9)

----------------
IN: 
0xfffd852d:  89 19                    movl     %ebx, (%rcx)

----------------
IN: 
0xfffd8536:  89 11                    movl     %edx, (%rcx)

----------------
IN: 
0xfffcd705:  48 83 c4 30              addq     $0x30, %rsp

----------------
IN: 
0xfffcd709:  81 7d cc 47 65 6e 75     cmpl     $0x756e6547, -0x34(%rbp)

----------------
IN: 
0xfffcd710:  74 07                    je       0xfffcd719

----------------
IN: 
0xfffcd712:  31 c0                    xorl     %eax, %eax

----------------
IN: 
0xfffcd714:  e9 92 00 00 00           jmp      0xfffcd7ab

----------------
IN: 
0xfffcd7ab:  48 8d 65 e0              leaq     -0x20(%rbp), %rsp

----------------
IN: 
0xfffcd7af:  5b                       popq     %rbx

----------------
IN: 
0xfffcd7b0:  41 5c                    popq     %r12

----------------
IN: 
0xfffcd7b2:  41 5d                    popq     %r13

----------------
IN: 
0xfffcd7b4:  41 5e                    popq     %r14

----------------
IN: 
0xfffcd7b6:  5d                       popq     %rbp

----------------
IN: 
0xfffcd7b7:  c3                       retq     

----------------
IN: 
0xfffcd9b9:  84 c0                    testb    %al, %al

----------------
IN: 
0xfffcd9bb:  74 2d                    je       0xfffcd9ea

----------------
IN: 
0xfffcd9ea:  48 83 ec 20              subq     $0x20, %rsp

----------------
IN: 
0xfffcd9ee:  89 d9                    movl     %ebx, %ecx

----------------
IN: 
0xfffcd9f0:  e8 a8 ff ff ff           callq    0xfffcd99d

----------------
IN: 
0xfffcd99d:  0f 32                    rdmsr    

----------------
IN: 
0xfffcd99f:  48 c1 e2 20              shlq     $0x20, %rdx

----------------
IN: 
0xfffcd9a3:  89 c0                    movl     %eax, %eax

----------------
IN: 
0xfffcd9a5:  48 09 d0                 orq      %rdx, %rax

----------------
IN: 
0xfffcd9a8:  c3                       retq     

----------------
IN: 
0xfffcd9f5:  48 83 c4 20              addq     $0x20, %rsp

----------------
IN: 
0xfffcd9f9:  48 89 45 e8              movq     %rax, -0x18(%rbp)

----------------
IN: 
0xfffcd9fd:  48 8b 45 e8              movq     -0x18(%rbp), %rax

----------------
IN: 
0xfffcda01:  48 8b 5d f8              movq     -8(%rbp), %rbx

----------------
IN: 
0xfffcda05:  c9                       leave    

----------------
IN: 
0xfffcda06:  c3                       retq     

----------------
IN: 
0xfffce44c:  0f b6 dc                 movzbl   %ah, %ebx

----------------
IN: 
0xfffce44f:  f6 c4 08                 testb    $8, %ah

----------------
IN: 
0xfffce452:  75 18                    jne      0xfffce46c

----------------
IN: 
0xfffce46c:  80 e3 04                 andb     $4, %bl

----------------
IN: 
0xfffce46f:  74 ca                    je       0xfffce43b

----------------
IN: 
0xfffce43b:  b8 01 00 00 00           movl     $1, %eax

----------------
IN: 
0xfffce440:  eb 34                    jmp      0xfffce476

----------------
IN: 
0xfffce476:  48 83 c4 28              addq     $0x28, %rsp

----------------
IN: 
0xfffce47a:  5b                       popq     %rbx

----------------
IN: 
0xfffce47b:  5e                       popq     %rsi

----------------
IN: 
0xfffce47c:  5f                       popq     %rdi

----------------
IN: 
0xfffce47d:  5d                       popq     %rbp

----------------
IN: 
0xfffce47e:  c3                       retq     

----------------
IN: 
0xfffd0b73:  48 ff c8                 decq     %rax

----------------
IN: 
0xfffd0b76:  75 15                    jne      0xfffd0b8d

----------------
IN: 
0xfffd0b78:  e8 80 d8 ff ff           callq    0xfffce3fd

----------------
IN: 
0xfffce3fd:  55                       pushq    %rbp

----------------
IN: 
0xfffce3fe:  48 89 e5                 movq     %rsp, %rbp

----------------
IN: 
0xfffce401:  57                       pushq    %rdi

----------------
IN: 
0xfffce402:  56                       pushq    %rsi

----------------
IN: 
0xfffce403:  e8 b6 ff ff ff           callq    0xfffce3be

----------------
IN: 
0xfffce408:  89 c2                    movl     %eax, %edx

----------------
IN: 
0xfffce40a:  b8 00 00 e0 fe           movl     $0xfee00000, %eax

----------------
IN: 
0xfffce40f:  84 d2                    testb    %dl, %dl

----------------
IN: 
0xfffce411:  74 10                    je       0xfffce423

----------------
IN: 
0xfffce413:  bf 1b 00 00 00           movl     $0x1b, %edi

----------------
IN: 
0xfffce418:  e8 8c f5 ff ff           callq    0xfffcd9a9

----------------
IN: 
0xfffce41d:  48 25 00 f0 ff ff        andq     $0xfffffffffffff000, %rax

----------------
IN: 
0xfffce423:  5e                       popq     %rsi

----------------
IN: 
0xfffce424:  5f                       popq     %rdi

----------------
IN: 
0xfffce425:  5d                       popq     %rbp

----------------
IN: 
0xfffce426:  c3                       retq     

----------------
IN: 
0xfffd0b7d:  48 83 c4 20              addq     $0x20, %rsp

----------------
IN: 
0xfffd0b81:  5e                       popq     %rsi

----------------
IN: 
0xfffd0b82:  48 8d 0c 38              leaq     (%rax, %rdi), %rcx

----------------
IN: 
0xfffd0b86:  5f                       popq     %rdi

----------------
IN: 
0xfffd0b87:  5d                       popq     %rbp

----------------
IN: 
0xfffd0b88:  e9 5a ff ff ff           jmp      0xfffd0ae7

----------------
IN: 
0xfffd0ae7:  55                       pushq    %rbp

----------------
IN: 
0xfffd0ae8:  48 89 e5                 movq     %rsp, %rbp

----------------
IN: 
0xfffd0aeb:  53                       pushq    %rbx

----------------
IN: 
0xfffd0aec:  48 89 cb                 movq     %rcx, %rbx

----------------
IN: 
0xfffd0aef:  48 83 ec 48              subq     $0x48, %rsp

----------------
IN: 
0xfffd0af3:  80 e1 03                 andb     $3, %cl

----------------
IN: 
0xfffd0af6:  74 18                    je       0xfffd0b10

----------------
IN: 
0xfffd0b10:  80 3c 25 00 b0 80 00 02  cmpb     $2, 0x80b000

----------------
IN: 
0xfffd0b18:  75 3e                    jne      0xfffd0b58

----------------
IN: 
0xfffd0b58:  8b 03                    movl     (%rbx), %eax

----------------
IN: 
0xfffd0b5a:  48 83 c4 48              addq     $0x48, %rsp

----------------
IN: 
0xfffd0b5e:  5b                       popq     %rbx

----------------
IN: 
0xfffd0b5f:  5d                       popq     %rbp

----------------
IN: 
0xfffd0b60:  c3                       retq     

----------------
IN: 
0xfffd6386:  f6 c4 01                 testb    $1, %ah

----------------
IN: 
0xfffd6389:  75 10                    jne      0xfffd639b

----------------
IN: 
0xfffd638b:  c9                       leave    

----------------
IN: 
0xfffd638c:  80 cc 01                 orb      $1, %ah

----------------
IN: 
0xfffd638f:  b9 f0 00 00 00           movl     $0xf0, %ecx

----------------
IN: 
0xfffd6394:  89 c2                    movl     %eax, %edx

----------------
IN: 
0xfffd6396:  e9 8d a9 ff ff           jmp      0xfffd0d28

----------------
IN: 
0xfffd0d28:  55                       pushq    %rbp

----------------
IN: 
0xfffd0d29:  48 89 e5                 movq     %rsp, %rbp

----------------
IN: 
0xfffd0d2c:  57                       pushq    %rdi

----------------
IN: 
0xfffd0d2d:  56                       pushq    %rsi

----------------
IN: 
0xfffd0d2e:  89 d6                    movl     %edx, %esi

----------------
IN: 
0xfffd0d30:  53                       pushq    %rbx

----------------
IN: 
0xfffd0d31:  48 89 cb                 movq     %rcx, %rbx

----------------
IN: 
0xfffd0d34:  48 83 ec 48              subq     $0x48, %rsp

----------------
IN: 
0xfffd0d38:  e8 ea d6 ff ff           callq    0xfffce427

----------------
IN: 
0xfffd0d3d:  48 ff c8                 decq     %rax

----------------
IN: 
0xfffd0d40:  75 18                    jne      0xfffd0d5a

----------------
IN: 
0xfffd0d42:  e8 b6 d6 ff ff           callq    0xfffce3fd

----------------
IN: 
0xfffd0d47:  48 83 c4 48              addq     $0x48, %rsp

----------------
IN: 
0xfffd0d4b:  89 f2                    movl     %esi, %edx

----------------
IN: 
0xfffd0d4d:  48 8d 0c 18              leaq     (%rax, %rbx), %rcx

----------------
IN: 
0xfffd0d51:  5b                       popq     %rbx

----------------
IN: 
0xfffd0d52:  5e                       popq     %rsi

----------------
IN: 
0xfffd0d53:  5f                       popq     %rdi

----------------
IN: 
0xfffd0d54:  5d                       popq     %rbp

----------------
IN: 
0xfffd0d55:  e9 37 ff ff ff           jmp      0xfffd0c91

----------------
IN: 
0xfffd0c91:  55                       pushq    %rbp

----------------
IN: 
0xfffd0c92:  48 89 e5                 movq     %rsp, %rbp

----------------
IN: 
0xfffd0c95:  57                       pushq    %rdi

----------------
IN: 
0xfffd0c96:  48 89 cf                 movq     %rcx, %rdi

----------------
IN: 
0xfffd0c99:  56                       pushq    %rsi

----------------
IN: 
0xfffd0c9a:  89 d6                    movl     %edx, %esi

----------------
IN: 
0xfffd0c9c:  53                       pushq    %rbx

----------------
IN: 
0xfffd0c9d:  48 89 cb                 movq     %rcx, %rbx

----------------
IN: 
0xfffd0ca0:  48 83 ec 38              subq     $0x38, %rsp

----------------
IN: 
0xfffd0ca4:  83 e7 03                 andl     $3, %edi

----------------
IN: 
0xfffd0ca7:  74 18                    je       0xfffd0cc1

----------------
IN: 
0xfffd0cc1:  80 3c 25 00 b0 80 00 02  cmpb     $2, 0x80b000

----------------
IN: 
0xfffd0cc9:  75 50                    jne      0xfffd0d1b

----------------
IN: 
0xfffd0d1b:  89 33                    movl     %esi, (%rbx)

----------------
IN: 
0xfffd0d1d:  48 83 c4 38              addq     $0x38, %rsp

----------------
IN: 
0xfffd0d21:  89 f0                    movl     %esi, %eax

----------------
IN: 
0xfffd0d23:  5b                       popq     %rbx

----------------
IN: 
0xfffd0d24:  5e                       popq     %rsi

----------------
IN: 
0xfffd0d25:  5f                       popq     %rdi

----------------
IN: 
0xfffd0d26:  5d                       popq     %rbp

----------------
IN: 
0xfffd0d27:  c3                       retq     

----------------
IN: 
0xfffd63be:  48 85 f6                 testq    %rsi, %rsi

----------------
IN: 
0xfffd63c1:  0f 84 ae 00 00 00        je       0xfffd6475

----------------
IN: 
0xfffd6475:  b9 20 03 00 00           movl     $0x320, %ecx

----------------
IN: 
0xfffd647a:  e8 e2 a6 ff ff           callq    0xfffd0b61

----------------
IN: 
0xfffd647f:  b9 20 03 00 00           movl     $0x320, %ecx

----------------
IN: 
0xfffd6484:  25 ff ff fc ff           andl     $0xfffcffff, %eax

----------------
IN: 
0xfffd6489:  89 c2                    movl     %eax, %edx

----------------
IN: 
0xfffd648b:  81 ca 00 00 02 00        orl      $0x20000, %edx

----------------
IN: 
0xfffd6491:  44 88 e2                 movb     %r12b, %dl

----------------
IN: 
0xfffd6494:  e8 8f a8 ff ff           callq    0xfffd0d28

----------------
IN: 
0xfffd6499:  48 83 c4 28              addq     $0x28, %rsp

----------------
IN: 
0xfffd649d:  89 fa                    movl     %edi, %edx

----------------
IN: 
0xfffd649f:  b9 80 03 00 00           movl     $0x380, %ecx

----------------
IN: 
0xfffd64a4:  5b                       popq     %rbx

----------------
IN: 
0xfffd64a5:  5e                       popq     %rsi

----------------
IN: 
0xfffd64a6:  5f                       popq     %rdi

----------------
IN: 
0xfffd64a7:  41 5c                    popq     %r12

----------------
IN: 
0xfffd64a9:  41 5d                    popq     %r13

----------------
IN: 
0xfffd64ab:  5d                       popq     %rbp

----------------
IN: 
0xfffd64ac:  e9 77 a8 ff ff           jmp      0xfffd0d28

----------------
IN: 
0xfffd3869:  e8 99 d5 ff ff           callq    0xfffd0e07

----------------
IN: 
0xfffd0e07:  55                       pushq    %rbp

----------------
IN: 
0xfffd0e08:  b9 20 03 00 00           movl     $0x320, %ecx

----------------
IN: 
0xfffd0e0d:  48 89 e5                 movq     %rsp, %rbp

----------------
IN: 
0xfffd0e10:  48 83 ec 20              subq     $0x20, %rsp

----------------
IN: 
0xfffd0e14:  e8 48 fd ff ff           callq    0xfffd0b61

----------------
IN: 
0xfffd0e19:  b9 20 03 00 00           movl     $0x320, %ecx

----------------
IN: 
0xfffd0e1e:  c9                       leave    

----------------
IN: 
0xfffd0e1f:  0d 00 00 01 00           orl      $0x10000, %eax

----------------
IN: 
0xfffd0e24:  89 c2                    movl     %eax, %edx

----------------
IN: 
0xfffd0e26:  e9 fd fe ff ff           jmp      0xfffd0d28

----------------
IN: 
0xfffd386e:  e8 ef a0 ff ff           callq    0xfffcd962

----------------
IN: 
0xfffd3873:  48 8b 8d e8 fc ff ff     movq     -0x318(%rbp), %rcx

----------------
IN: 
0xfffd387a:  e8 4a c1 ff ff           callq    0xfffcf9c9

----------------
IN: 
0xfffcf9c9:  0f 01 09                 sidtq    (%rcx)

----------------
IN: 
0xfffcf9cc:  c3                       retq     

----------------
IN: 
0xfffd387f:  66 8c c8                 movw     %cs, %ax

----------------
IN: 
0xfffd3882:  4c 8b 85 2e fd ff ff     movq     -0x2d2(%rbp), %r8

----------------
IN: 
0xfffd3889:  45 31 c9                 xorl     %r9d, %r9d

----------------
IN: 
0xfffd388c:  4c 8d 1d 95 4f 00 00     leaq     0x4f95(%rip), %r11

----------------
IN: 
0xfffd3893:  8b 15 bb 94 00 00        movl     0x94bb(%rip), %edx

----------------
IN: 
0xfffd3899:  4c 89 c9                 movq     %r9, %rcx

----------------
IN: 
0xfffd389c:  48 c1 e1 04              shlq     $4, %rcx

----------------
IN: 
0xfffd38a0:  49 0f af d1              imulq    %r9, %rdx

----------------
IN: 
0xfffd38a4:  4c 01 c1                 addq     %r8, %rcx

----------------
IN: 
0xfffd38a7:  49 ff c1                 incq     %r9

----------------
IN: 
0xfffd38aa:  66 89 41 02              movw     %ax, 2(%rcx)

----------------
IN: 
0xfffd38ae:  c6 41 05 8e              movb     $0x8e, 5(%rcx)

----------------
IN: 
0xfffd38b2:  4c 01 da                 addq     %r11, %rdx

----------------
IN: 
0xfffd38b5:  49 89 d2                 movq     %rdx, %r10

----------------
IN: 
0xfffd38b8:  66 89 11                 movw     %dx, (%rcx)

----------------
IN: 
0xfffd38bb:  48 c1 ea 20              shrq     $0x20, %rdx

----------------
IN: 
0xfffd38bf:  49 c1 ea 10              shrq     $0x10, %r10

----------------
IN: 
0xfffd38c3:  89 51 08                 movl     %edx, 8(%rcx)

----------------
IN: 
0xfffd38c6:  66 44 89 51 06           movw     %r10w, 6(%rcx)

----------------
IN: 
0xfffd38cb:  49 83 f9 14              cmpq     $0x14, %r9

----------------
IN: 
0xfffd38cf:  75 c2                    jne      0xfffd3893

----------------
IN: 
0xfffd38d1:  48 8d 15 cc 50 00 00     leaq     0x50cc(%rip), %rdx

----------------
IN: 
0xfffd38d8:  48 8d 9d 10 fd ff ff     leaq     -0x2f0(%rbp), %rbx

----------------
IN: 
0xfffd38df:  45 31 c9                 xorl     %r9d, %r9d

----------------
IN: 
0xfffd38e2:  66 41 89 80 02 02 00 00  movw     %ax, 0x202(%r8)

----------------
IN: 
0xfffd38ea:  48 89 d1                 movq     %rdx, %rcx

----------------
IN: 
0xfffd38ed:  66 41 89 90 00 02 00 00  movw     %dx, 0x200(%r8)

----------------
IN: 
0xfffd38f5:  48 c1 ea 20              shrq     $0x20, %rdx

----------------
IN: 
0xfffd38f9:  48 c1 e9 10              shrq     $0x10, %rcx

----------------
IN: 
0xfffd38fd:  41 89 90 08 02 00 00     movl     %edx, 0x208(%r8)

----------------
IN: 
0xfffd3904:  31 d2                    xorl     %edx, %edx

----------------
IN: 
0xfffd3906:  66 41 89 88 06 02 00 00  movw     %cx, 0x206(%r8)

----------------
IN: 
0xfffd390e:  b9 01 00 00 00           movl     $1, %ecx

----------------
IN: 
0xfffd3913:  41 c6 80 05 02 00 00 8e  movb     $0x8e, 0x205(%r8)

----------------
IN: 
0xfffd391b:  45 31 c0                 xorl     %r8d, %r8d

----------------
IN: 
0xfffd391e:  48 89 5c 24 20           movq     %rbx, 0x20(%rsp)

----------------
IN: 
0xfffd3923:  e8 ec 4b 00 00           callq    0xfffd8514

----------------
IN: 
0xfffd3928:  f6 85 10 fd ff ff 04     testb    $4, -0x2f0(%rbp)

----------------
IN: 
0xfffd392f:  74 0a                    je       0xfffd393b

----------------
IN: 
0xfffd3931:  0f 20 e0                 movq     %cr4, %rax

----------------
IN: 
0xfffd3934:  48 83 c8 08              orq      $8, %rax

----------------
IN: 
0xfffd3938:  0f 22 e0                 movq     %rax, %cr4

----------------
IN: 
0xfffd393b:  48 8b 85 e8 fc ff ff     movq     -0x318(%rbp), %rax

----------------
IN: 
0xfffd3942:  ba 21 00 00 00           movl     $0x21, %edx

----------------
IN: 
0xfffd3947:  48 8d bd f8 fc ff ff     leaq     -0x308(%rbp), %rdi

----------------
IN: 
0xfffd394e:  48 89 c1                 movq     %rax, %rcx

----------------
IN: 
0xfffd3951:  48 89 85 f8 fc ff ff     movq     %rax, -0x308(%rbp)

----------------
IN: 
0xfffd3958:  e8 2d ad ff ff           callq    0xfffce68a

----------------
IN: 
0xfffce68a:  55                       pushq    %rbp

----------------
IN: 
0xfffce68b:  48 89 e5                 movq     %rsp, %rbp

----------------
IN: 
0xfffce68e:  56                       pushq    %rsi

----------------
IN: 
0xfffce68f:  48 89 d6                 movq     %rdx, %rsi

----------------
IN: 
0xfffce692:  53                       pushq    %rbx

----------------
IN: 
0xfffce693:  48 89 cb                 movq     %rcx, %rbx

----------------
IN: 
0xfffce696:  48 83 ec 20              subq     $0x20, %rsp

----------------
IN: 
0xfffce69a:  48 85 c9                 testq    %rcx, %rcx

----------------
IN: 
0xfffce69d:  75 1a                    jne      0xfffce6b9

----------------
IN: 
0xfffce6b9:  48 89 c8                 movq     %rcx, %rax

----------------
IN: 
0xfffce6bc:  48 f7 d8                 negq     %rax

----------------
IN: 
0xfffce6bf:  48 39 d0                 cmpq     %rdx, %rax

----------------
IN: 
0xfffce6c2:  73 18                    jae      0xfffce6dc

----------------
IN: 
0xfffce6dc:  48 83 c4 20              addq     $0x20, %rsp

----------------
IN: 
0xfffce6e0:  48 89 f2                 movq     %rsi, %rdx

----------------
IN: 
0xfffce6e3:  48 89 d9                 movq     %rbx, %rcx

----------------
IN: 
0xfffce6e6:  5b                       popq     %rbx

----------------
IN: 
0xfffce6e7:  5e                       popq     %rsi

----------------
IN: 
0xfffce6e8:  5d                       popq     %rbp

----------------
IN: 
0xfffce6e9:  e9 76 9d 00 00           jmp      0xfffd8464

----------------
IN: 
0xfffd8464:  57                       pushq    %rdi

----------------
IN: 
0xfffd8465:  51                       pushq    %rcx

----------------
IN: 
0xfffd8466:  48 31 c0                 xorq     %rax, %rax

----------------
IN: 
0xfffd8469:  48 89 cf                 movq     %rcx, %rdi

----------------
IN: 
0xfffd846c:  48 89 d1                 movq     %rdx, %rcx

----------------
IN: 
0xfffd846f:  48 c1 e9 03              shrq     $3, %rcx

----------------
IN: 
0xfffd8473:  48 83 e2 07              andq     $7, %rdx

----------------
IN: 
0xfffd8477:  f3 48 ab                 rep stosq %rax, (%rdi)

----------------
IN: 
0xfffd847a:  89 d1                    movl     %edx, %ecx

----------------
IN: 
0xfffd847c:  f3 aa                    rep stosb %al, (%rdi)

----------------
IN: 
0xfffd847e:  58                       popq     %rax

----------------
IN: 
0xfffd847f:  5f                       popq     %rdi

----------------
IN: 
0xfffd8480:  c3                       retq     

----------------
IN: 
0xfffd395d:  e8 ac c0 ff ff           callq    0xfffcfa0e

----------------
IN: 
0xfffcfa0e:  55                       pushq    %rbp

----------------
IN: 
0xfffcfa0f:  48 89 fa                 movq     %rdi, %rdx

----------------
IN: 
0xfffcfa12:  48 c1 ea 10              shrq     $0x10, %rdx

----------------
IN: 
0xfffcfa16:  48 89 e5                 movq     %rsp, %rbp

----------------
IN: 
0xfffcfa19:  48 83 ec 30              subq     $0x30, %rsp

----------------
IN: 
0xfffcfa1d:  48 8d 4d f6              leaq     -0xa(%rbp), %rcx

----------------
IN: 
0xfffcfa21:  e8 a3 ff ff ff           callq    0xfffcf9c9

----------------
IN: 
0xfffcfa26:  48 8b 45 f8              movq     -8(%rbp), %rax

----------------
IN: 
0xfffcfa2a:  48 83 c4 20              addq     $0x20, %rsp

----------------
IN: 
0xfffcfa2e:  66 89 b8 10 02 00 00     movw     %di, 0x210(%rax)

----------------
IN: 
0xfffcfa35:  48 c1 ef 20              shrq     $0x20, %rdi

----------------
IN: 
0xfffcfa39:  66 89 90 16 02 00 00     movw     %dx, 0x216(%rax)

----------------
IN: 
0xfffcfa40:  89 b8 18 02 00 00        movl     %edi, 0x218(%rax)

----------------
IN: 
0xfffcfa46:  c9                       leave    

----------------
IN: 
0xfffcfa47:  c3                       retq     

----------------
IN: 
0xfffd3962:  bf 0f 00 00 00           movl     $0xf, %edi

----------------
IN: 
0xfffd3967:  be 01 00 00 00           movl     $1, %esi

----------------
IN: 
0xfffd396c:  48 c1 e7 21              shlq     $0x21, %rdi

----------------
IN: 
0xfffd3970:  e8 73 ed ff ff           callq    0xfffd26e8

----------------
IN: 
0xfffd26e8:  55                       pushq    %rbp

----------------
IN: 
0xfffd26e9:  48 89 e5                 movq     %rsp, %rbp

----------------
IN: 
0xfffd26ec:  41 54                    pushq    %r12

----------------
IN: 
0xfffd26ee:  49 89 fc                 movq     %rdi, %r12

----------------
IN: 
0xfffd26f1:  53                       pushq    %rbx

----------------
IN: 
0xfffd26f2:  89 f3                    movl     %esi, %ebx

----------------
IN: 
0xfffd26f4:  e8 4f fb ff ff           callq    0xfffd2248

----------------
IN: 
0xfffd2248:  55                       pushq    %rbp

----------------
IN: 
0xfffd2249:  48 89 e5                 movq     %rsp, %rbp

----------------
IN: 
0xfffd224c:  41 55                    pushq    %r13

----------------
IN: 
0xfffd224e:  41 54                    pushq    %r12

----------------
IN: 
0xfffd2250:  53                       pushq    %rbx

----------------
IN: 
0xfffd2251:  50                       pushq    %rax

----------------
IN: 
0xfffd2252:  e8 cb f5 ff ff           callq    0xfffd1822

----------------
IN: 
0xfffd1822:  55                       pushq    %rbp

----------------
IN: 
0xfffd1823:  48 89 e5                 movq     %rsp, %rbp

----------------
IN: 
0xfffd1826:  41 56                    pushq    %r14

----------------
IN: 
0xfffd1828:  41 55                    pushq    %r13

----------------
IN: 
0xfffd182a:  48 8d 4d d6              leaq     -0x2a(%rbp), %rcx

----------------
IN: 
0xfffd182e:  41 54                    pushq    %r12

----------------
IN: 
0xfffd1830:  53                       pushq    %rbx

----------------
IN: 
0xfffd1831:  48 83 ec 30              subq     $0x30, %rsp

----------------
IN: 
0xfffd1835:  e8 8f e1 ff ff           callq    0xfffcf9c9

----------------
IN: 
0xfffd183a:  48 8b 45 d8              movq     -0x28(%rbp), %rax

----------------
IN: 
0xfffd183e:  0f b7 98 16 02 00 00     movzwl   0x216(%rax), %ebx

----------------
IN: 
0xfffd1845:  8b 90 18 02 00 00        movl     0x218(%rax), %edx

----------------
IN: 
0xfffd184b:  0f b7 80 10 02 00 00     movzwl   0x210(%rax), %eax

----------------
IN: 
0xfffd1852:  48 c1 e2 20              shlq     $0x20, %rdx

----------------
IN: 
0xfffd1856:  48 c1 e3 10              shlq     $0x10, %rbx

----------------
IN: 
0xfffd185a:  48 09 d3                 orq      %rdx, %rbx

----------------
IN: 
0xfffd185d:  ba 1f 00 00 00           movl     $0x1f, %edx

----------------
IN: 
0xfffd1862:  48 09 c3                 orq      %rax, %rbx

----------------
IN: 
0xfffd1865:  4c 8b 2b                 movq     (%rbx), %r13

----------------
IN: 
0xfffd1868:  4c 89 e9                 movq     %r13, %rcx

----------------
IN: 
0xfffd186b:  e8 43 de ff ff           callq    0xfffcf6b3

----------------
IN: 
0xfffcf6b3:  55                       pushq    %rbp

----------------
IN: 
0xfffcf6b4:  48 89 e5                 movq     %rsp, %rbp

----------------
IN: 
0xfffcf6b7:  56                       pushq    %rsi

----------------
IN: 
0xfffcf6b8:  48 89 d6                 movq     %rdx, %rsi

----------------
IN: 
0xfffcf6bb:  53                       pushq    %rbx

----------------
IN: 
0xfffcf6bc:  48 89 cb                 movq     %rcx, %rbx

----------------
IN: 
0xfffcf6bf:  48 83 ec 20              subq     $0x20, %rsp

----------------
IN: 
0xfffcf6c3:  48 85 c9                 testq    %rcx, %rcx

----------------
IN: 
0xfffcf6c6:  75 1a                    jne      0xfffcf6e2

----------------
IN: 
0xfffcf6e2:  48 89 c8                 movq     %rcx, %rax

----------------
IN: 
0xfffcf6e5:  48 f7 d8                 negq     %rax

----------------
IN: 
0xfffcf6e8:  48 39 d0                 cmpq     %rdx, %rax

----------------
IN: 
0xfffcf6eb:  73 18                    jae      0xfffcf705

----------------
IN: 
0xfffcf705:  31 c0                    xorl     %eax, %eax

----------------
IN: 
0xfffcf707:  31 d2                    xorl     %edx, %edx

----------------
IN: 
0xfffcf709:  02 14 03                 addb     (%rbx, %rax), %dl

----------------
IN: 
0xfffcf70c:  48 ff c0                 incq     %rax

----------------
IN: 
0xfffcf70f:  48 39 c6                 cmpq     %rax, %rsi

----------------
IN: 
0xfffcf712:  75 f5                    jne      0xfffcf709

----------------
IN: 
0xfffcf714:  48 83 c4 20              addq     $0x20, %rsp

----------------
IN: 
0xfffcf718:  89 d0                    movl     %edx, %eax

----------------
IN: 
0xfffcf71a:  5b                       popq     %rbx

----------------
IN: 
0xfffcf71b:  5e                       popq     %rsi

----------------
IN: 
0xfffcf71c:  5d                       popq     %rbp

----------------
IN: 
0xfffcf71d:  c3                       retq     

----------------
IN: 
0xfffd1870:  48 83 c4 20              addq     $0x20, %rsp

----------------
IN: 
0xfffd1874:  f7 d8                    negl     %eax

----------------
IN: 
0xfffd1876:  41 38 45 1f              cmpb     %al, 0x1f(%r13)

----------------
IN: 
0xfffd187a:  74 6a                    je       0xfffd18e6

----------------
IN: 
0xfffd18e6:  48 8d 65 e0              leaq     -0x20(%rbp), %rsp

----------------
IN: 
0xfffd18ea:  48 89 d8                 movq     %rbx, %rax

----------------
IN: 
0xfffd18ed:  5b                       popq     %rbx

----------------
IN: 
0xfffd18ee:  41 5c                    popq     %r12

----------------
IN: 
0xfffd18f0:  41 5d                    popq     %r13

----------------
IN: 
0xfffd18f2:  41 5e                    popq     %r14

----------------
IN: 
0xfffd18f4:  5d                       popq     %rbp

----------------
IN: 
0xfffd18f5:  c3                       retq     

----------------
IN: 
0xfffd2257:  48 8b 18                 movq     (%rax), %rbx

----------------
IN: 
0xfffd225a:  49 89 c5                 movq     %rax, %r13

----------------
IN: 
0xfffd225d:  8a 03                    movb     (%rbx), %al

----------------
IN: 
0xfffd225f:  83 e0 70                 andl     $0x70, %eax

----------------
IN: 
0xfffd2262:  3c 50                    cmpb     $0x50, %al

----------------
IN: 
0xfffd2264:  75 58                    jne      0xfffd22be

----------------
IN: 
0xfffd22be:  48 8d 65 e8              leaq     -0x18(%rbp), %rsp

----------------
IN: 
0xfffd22c2:  48 89 d8                 movq     %rbx, %rax

----------------
IN: 
0xfffd22c5:  5b                       popq     %rbx

----------------
IN: 
0xfffd22c6:  41 5c                    popq     %r12

----------------
IN: 
0xfffd22c8:  41 5d                    popq     %r13

----------------
IN: 
0xfffd22ca:  5d                       popq     %rbp

----------------
IN: 
0xfffd22cb:  c3                       retq     

----------------
IN: 
0xfffd26f9:  49 0f bc cc              bsfq     %r12, %rcx

----------------
IN: 
0xfffd26fd:  be 01 00 00 00           movl     $1, %esi

----------------
IN: 
0xfffd2702:  48 d3 e3                 shlq     %cl, %rbx

----------------
IN: 
0xfffd2705:  48 89 c7                 movq     %rax, %rdi

----------------
IN: 
0xfffd2708:  48 8b 00                 movq     (%rax), %rax

----------------
IN: 
0xfffd270b:  48 89 da                 movq     %rbx, %rdx

----------------
IN: 
0xfffd270e:  5b                       popq     %rbx

----------------
IN: 
0xfffd270f:  48 31 c2                 xorq     %rax, %rdx

----------------
IN: 
0xfffd2712:  4c 21 e2                 andq     %r12, %rdx

----------------
IN: 
0xfffd2715:  41 5c                    popq     %r12

----------------
IN: 
0xfffd2717:  5d                       popq     %rbp

----------------
IN: 
0xfffd2718:  48 31 c2                 xorq     %rax, %rdx

----------------
IN: 
0xfffd271b:  e9 71 f9 ff ff           jmp      0xfffd2091

----------------
IN: 
0xfffd2091:  55                       pushq    %rbp

----------------
IN: 
0xfffd2092:  48 83 ee 02              subq     $2, %rsi

----------------
IN: 
0xfffd2096:  48 89 e5                 movq     %rsp, %rbp

----------------
IN: 
0xfffd2099:  41 56                    pushq    %r14

----------------
IN: 
0xfffd209b:  41 55                    pushq    %r13

----------------
IN: 
0xfffd209d:  4c 8d 6d d8              leaq     -0x28(%rbp), %r13

----------------
IN: 
0xfffd20a1:  41 54                    pushq    %r12

----------------
IN: 
0xfffd20a3:  49 89 d4                 movq     %rdx, %r12

----------------
IN: 
0xfffd20a6:  53                       pushq    %rbx

----------------
IN: 
0xfffd20a7:  48 89 fb                 movq     %rdi, %rbx

----------------
IN: 
0xfffd20aa:  48 83 ec 10              subq     $0x10, %rsp

----------------
IN: 
0xfffd20ae:  48 83 fe 05              cmpq     $5, %rsi

----------------
IN: 
0xfffd20b2:  48 89 55 d8              movq     %rdx, -0x28(%rbp)

----------------
IN: 
0xfffd20b6:  44 8a 77 1f              movb     0x1f(%rdi), %r14b

----------------
IN: 
0xfffd20ba:  77 10                    ja       0xfffd20cc

----------------
IN: 
0xfffd20cc:  48 83 ec 20              subq     $0x20, %rsp

----------------
IN: 
0xfffd20d0:  48 89 f9                 movq     %rdi, %rcx

----------------
IN: 
0xfffd20d3:  ba 08 00 00 00           movl     $8, %edx

----------------
IN: 
0xfffd20d8:  e8 d6 d5 ff ff           callq    0xfffcf6b3

----------------
IN: 
0xfffd20dd:  ba 08 00 00 00           movl     $8, %edx

----------------
IN: 
0xfffd20e2:  4c 89 e9                 movq     %r13, %rcx

----------------
IN: 
0xfffd20e5:  41 01 c6                 addl     %eax, %r14d

----------------
IN: 
0xfffd20e8:  e8 c6 d5 ff ff           callq    0xfffcf6b3

----------------
IN: 
0xfffd20ed:  4c 89 23                 movq     %r12, (%rbx)

----------------
IN: 
0xfffd20f0:  41 29 c6                 subl     %eax, %r14d

----------------
IN: 
0xfffd20f3:  44 88 73 20              movb     %r14b, 0x20(%rbx)

----------------
IN: 
0xfffd20f7:  e9 21 01 00 00           jmp      0xfffd221d

----------------
IN: 
0xfffd221d:  48 83 c4 20              addq     $0x20, %rsp

----------------
IN: 
0xfffd2221:  48 89 d9                 movq     %rbx, %rcx

----------------
IN: 
0xfffd2224:  ba 1f 00 00 00           movl     $0x1f, %edx

----------------
IN: 
0xfffd2229:  48 83 ec 20              subq     $0x20, %rsp

----------------
IN: 
0xfffd222d:  e8 81 d4 ff ff           callq    0xfffcf6b3

----------------
IN: 
0xfffd2232:  48 83 c4 20              addq     $0x20, %rsp

----------------
IN: 
0xfffd2236:  f7 d8                    negl     %eax

----------------
IN: 
0xfffd2238:  88 43 1f                 movb     %al, 0x1f(%rbx)

----------------
IN: 
0xfffd223b:  48 8d 65 e0              leaq     -0x20(%rbp), %rsp

----------------
IN: 
0xfffd223f:  5b                       popq     %rbx

----------------
IN: 
0xfffd2240:  41 5c                    popq     %r12

----------------
IN: 
0xfffd2242:  41 5d                    popq     %r13

----------------
IN: 
0xfffd2244:  41 5e                    popq     %r14

----------------
IN: 
0xfffd2246:  5d                       popq     %rbp

----------------
IN: 
0xfffd2247:  c3                       retq     

----------------
IN: 
0xfffd3975:  be 02 00 00 00           movl     $2, %esi

----------------
IN: 
0xfffd397a:  bf 60 00 00 00           movl     $0x60, %edi

----------------
IN: 
0xfffd397f:  e8 64 ed ff ff           callq    0xfffd26e8

----------------
IN: 
0xfffd3984:  48 8d bd f4 fc ff ff     leaq     -0x30c(%rbp), %rdi

----------------
IN: 
0xfffd398b:  be 01 00 00 00           movl     $1, %esi

----------------
IN: 
0xfffd3990:  e8 76 e0 ff ff           callq    0xfffd1a0b

----------------
IN: 
0xfffd1a0b:  55                       pushq    %rbp

----------------
IN: 
0xfffd1a0c:  b9 01 00 00 00           movl     $1, %ecx

----------------
IN: 
0xfffd1a11:  48 89 e5                 movq     %rsp, %rbp

----------------
IN: 
0xfffd1a14:  41 56                    pushq    %r14

----------------
IN: 
0xfffd1a16:  41 55                    pushq    %r13

----------------
IN: 
0xfffd1a18:  41 54                    pushq    %r12

----------------
IN: 
0xfffd1a1a:  41 89 f4                 movl     %esi, %r12d

----------------
IN: 
0xfffd1a1d:  53                       pushq    %rbx

----------------
IN: 
0xfffd1a1e:  48 89 fb                 movq     %rdi, %rbx

----------------
IN: 
0xfffd1a21:  48 83 ec 20              subq     $0x20, %rsp

----------------
IN: 
0xfffd1a25:  e8 4a 49 00 00           callq    0xfffd6374

----------------
IN: 
0xfffd639b:  c9                       leave    

----------------
IN: 
0xfffd639c:  c3                       retq     

----------------
IN: 
0xfffd1a2a:  b9 f0 00 00 00           movl     $0xf0, %ecx

----------------
IN: 
0xfffd1a2f:  e8 2d f1 ff ff           callq    0xfffd0b61

----------------
IN: 
0xfffd1a34:  48 83 c4 20              addq     $0x20, %rsp

----------------
IN: 
0xfffd1a38:  0f ba e0 08              btl      $8, %eax

----------------
IN: 
0xfffd1a3c:  72 20                    jb       0xfffd1a5e

----------------
IN: 
0xfffd1a5e:  48 83 ec 20              subq     $0x20, %rsp

----------------
IN: 
0xfffd1a62:  b9 e0 03 00 00           movl     $0x3e0, %ecx

----------------
IN: 
0xfffd1a67:  41 bd 01 00 00 00        movl     $1, %r13d

----------------
IN: 
0xfffd1a6d:  e8 ef f0 ff ff           callq    0xfffd0b61

----------------
IN: 
0xfffd1a72:  4c 8d 35 88 88 00 00     leaq     0x8888(%rip), %r14

----------------
IN: 
0xfffd1a79:  ba 5f 00 00 00           movl     $0x5f, %edx

----------------
IN: 
0xfffd1a7e:  4c 8d 05 e8 74 00 00     leaq     0x74e8(%rip), %r8

----------------
IN: 
0xfffd1a85:  89 c1                    movl     %eax, %ecx

----------------
IN: 
0xfffd1a87:  83 e0 03                 andl     $3, %eax

----------------
IN: 
0xfffd1a8a:  d1 e9                    shrl     $1, %ecx

----------------
IN: 
0xfffd1a8c:  83 e1 04                 andl     $4, %ecx

----------------
IN: 
0xfffd1a8f:  09 c1                    orl      %eax, %ecx

----------------
IN: 
0xfffd1a91:  ff c1                    incl     %ecx

----------------
IN: 
0xfffd1a93:  83 e1 07                 andl     $7, %ecx

----------------
IN: 
0xfffd1a96:  49 d3 e5                 shlq     %cl, %r13

----------------
IN: 
0xfffd1a99:  4c 89 f1                 movq     %r14, %rcx

----------------
IN: 
0xfffd1a9c:  e8 c7 bf ff ff           callq    0xfffcda68

----------------
IN: 
0xfffcda68:  55                       pushq    %rbp

----------------
IN: 
0xfffcda69:  49 89 c9                 movq     %rcx, %r9

----------------
IN: 
0xfffcda6c:  48 89 e5                 movq     %rsp, %rbp

----------------
IN: 
0xfffcda6f:  56                       pushq    %rsi

----------------
IN: 
0xfffcda70:  53                       pushq    %rbx

----------------
IN: 
0xfffcda71:  48 8d b5 f0 fd ff ff     leaq     -0x210(%rbp), %rsi

----------------
IN: 
0xfffcda78:  48 89 f1                 movq     %rsi, %rcx

----------------
IN: 
0xfffcda7b:  48 81 ec 30 02 00 00     subq     $0x230, %rsp

----------------
IN: 
0xfffcda82:  4c 89 44 24 28           movq     %r8, 0x28(%rsp)

----------------
IN: 
0xfffcda87:  4c 8d 05 cb b4 00 00     leaq     0xb4cb(%rip), %r8

----------------
IN: 
0xfffcda8e:  48 89 54 24 20           movq     %rdx, 0x20(%rsp)

----------------
IN: 
0xfffcda93:  ba 00 02 00 00           movl     $0x200, %edx

----------------
IN: 
0xfffcda98:  e8 a1 ff ff ff           callq    0xfffcda3e

----------------
IN: 
0xfffcda3e:  55                       pushq    %rbp

----------------
IN: 
0xfffcda3f:  48 89 e5                 movq     %rsp, %rbp

----------------
IN: 
0xfffcda42:  57                       pushq    %rdi

----------------
IN: 
0xfffcda43:  48 89 cf                 movq     %rcx, %rdi

----------------
IN: 
0xfffcda46:  56                       pushq    %rsi

----------------
IN: 
0xfffcda47:  48 8d 4d 28              leaq     0x28(%rbp), %rcx

----------------
IN: 
0xfffcda4b:  48 89 d6                 movq     %rdx, %rsi

----------------
IN: 
0xfffcda4e:  4c 89 c2                 movq     %r8, %rdx

----------------
IN: 
0xfffcda51:  48 83 ec 10              subq     $0x10, %rsp

----------------
IN: 
0xfffcda55:  48 89 4d e8              movq     %rcx, -0x18(%rbp)

----------------
IN: 
0xfffcda59:  4c 89 4d 28              movq     %r9, 0x28(%rbp)

----------------
IN: 
0xfffcda5d:  e8 4f 8a 00 00           callq    0xfffd64b1

----------------
IN: 
0xfffd6938:  4c 8b 20                 movq     (%rax), %r12

----------------
IN: 
0xfffd693b:  48 8d 48 08              leaq     8(%rax), %rcx

----------------
IN: 
0xfffd693f:  48 89 4d 80              movq     %rcx, -0x80(%rbp)

----------------
IN: 
0xfffd6943:  4d 85 e4                 testq    %r12, %r12

----------------
IN: 
0xfffd6946:  75 0a                    jne      0xfffd6952

----------------
IN: 
0xfffd6952:  49 89 d9                 movq     %rbx, %r9

----------------
IN: 
0xfffd6955:  41 81 e1 00 08 00 00     andl     $0x800, %r9d

----------------
IN: 
0xfffd695c:  0f 85 2e 02 00 00        jne      0xfffd6b90

----------------
IN: 
0xfffd6962:  31 f6                    xorl     %esi, %esi

----------------
IN: 
0xfffd6964:  e9 2a 02 00 00           jmp      0xfffd6b93

----------------
IN: 
0xfffd6b93:  45 31 d2                 xorl     %r10d, %r10d

----------------
IN: 
0xfffd6b96:  45 31 db                 xorl     %r11d, %r11d

----------------
IN: 
0xfffd6b99:  45 31 ed                 xorl     %r13d, %r13d

----------------
IN: 
0xfffd6b9c:  eb 28                    jmp      0xfffd6bc6

----------------
IN: 
0xfffd66ab:  48 83 cb 10              orq      $0x10, %rbx

----------------
IN: 
0xfffd66af:  e9 4e 09 00 00           jmp      0xfffd7002

----------------
IN: 
0xfffd7002:  4d 89 f9                 movq     %r15, %r9

----------------
IN: 
0xfffd7005:  e9 41 f6 ff ff           jmp      0xfffd664b

----------------
IN: 
0xfffd67df:  48 83 e1 fd              andq     $0xfffffffffffffffd, %rcx

----------------
IN: 
0xfffd67e3:  80 cd 40                 orb      $0x40, %ch

----------------
IN: 
0xfffd67e6:  eb 03                    jmp      0xfffd67eb

----------------
IN: 
0xfffd6800:  4c 8b 00                 movq     (%rax), %r8

----------------
IN: 
0xfffd6829:  48 85 c0                 testq    %rax, %rax

----------------
IN: 
0xfffd682c:  74 09                    je       0xfffd6837

----------------
IN: 
0xfffd6837:  4d 85 c0                 testq    %r8, %r8

----------------
IN: 
0xfffd683a:  79 18                    jns      0xfffd6854

----------------
IN: 
0xfffd6854:  48 89 c8                 movq     %rcx, %rax

----------------
IN: 
0xfffd6857:  41 b9 0a 00 00 00        movl     $0xa, %r9d

----------------
IN: 
0xfffd685d:  25 10 40 00 00           andl     $0x4010, %eax

----------------
IN: 
0xfffd6862:  48 3d 00 40 00 00        cmpq     $0x4000, %rax

----------------
IN: 
0xfffd6868:  75 1b                    jne      0xfffd6885

----------------
IN: 
0xfffcda62:  5a                       popq     %rdx

----------------
IN: 
0xfffcda63:  59                       popq     %rcx

----------------
IN: 
0xfffcda64:  5e                       popq     %rsi

----------------
IN: 
0xfffcda65:  5f                       popq     %rdi

----------------
IN: 
0xfffcda66:  5d                       popq     %rbp

----------------
IN: 
0xfffcda67:  c3                       retq     

----------------
IN: 
0xfffcda9d:  b9 02 04 00 00           movl     $0x402, %ecx

----------------
IN: 
0xfffcdaa2:  48 89 c3                 movq     %rax, %rbx

----------------
IN: 
0xfffcdaa5:  e8 3e fd ff ff           callq    0xfffcd7e8

----------------
IN: 
0xfffcdaaa:  3c e9                    cmpb     $0xe9, %al

----------------
IN: 
0xfffcdaac:  75 10                    jne      0xfffcdabe

----------------
IN: 
0xfffcdaae:  49 89 f0                 movq     %rsi, %r8

----------------
IN: 
0xfffcdab1:  48 89 da                 movq     %rbx, %rdx

----------------
IN: 
0xfffcdab4:  b9 02 04 00 00           movl     $0x402, %ecx

----------------
IN: 
0xfffcdab9:  e8 45 fe ff ff           callq    0xfffcd903

----------------
IN: 
0xfffcdabe:  48 81 c4 30 02 00 00     addq     $0x230, %rsp

----------------
IN: 
0xfffcdac5:  5b                       popq     %rbx

----------------
IN: 
0xfffcdac6:  5e                       popq     %rsi

----------------
IN: 
0xfffcdac7:  5d                       popq     %rbp

----------------
IN: 
0xfffcdac8:  c3                       retq     

----------------
IN: 
0xfffd1aa1:  41 b9 20 00 00 00        movl     $0x20, %r9d

----------------
IN: 
0xfffd1aa7:  31 d2                    xorl     %edx, %edx

----------------
IN: 
0xfffd1aa9:  4c 89 e9                 movq     %r13, %rcx

----------------
IN: 
0xfffd1aac:  41 b8 01 00 00 00        movl     $1, %r8d

----------------
IN: 
0xfffd1ab2:  e8 e6 48 00 00           callq    0xfffd639d

----------------
IN: 
0xfffd63c7:  41 89 f5                 movl     %esi, %r13d

----------------
IN: 
0xfffd63ca:  48 81 fe 80 00 00 00     cmpq     $0x80, %rsi

----------------
IN: 
0xfffd63d1:  77 09                    ja       0xfffd63dc

----------------
IN: 
0xfffd63d3:  89 f0                    movl     %esi, %eax

----------------
IN: 
0xfffd63d5:  b9 1f 00 00 00           movl     $0x1f, %ecx

----------------
IN: 
0xfffd63da:  eb 3e                    jmp      0xfffd641a

----------------
IN: 
0xfffd641a:  85 c0                    testl    %eax, %eax

----------------
IN: 
0xfffd641c:  7e 07                    jle      0xfffd6425

----------------
IN: 
0xfffd641e:  48 ff c9                 decq     %rcx

----------------
IN: 
0xfffd6421:  01 c0                    addl     %eax, %eax

----------------
IN: 
0xfffd6423:  eb f5                    jmp      0xfffd641a

----------------
IN: 
0xfffd6425:  b8 01 00 00 00           movl     $1, %eax

----------------
IN: 
0xfffd642a:  48 d3 e0                 shlq     %cl, %rax

----------------
IN: 
0xfffd642d:  89 c0                    movl     %eax, %eax

----------------
IN: 
0xfffd642f:  48 39 c6                 cmpq     %rax, %rsi

----------------
IN: 
0xfffd6432:  75 c4                    jne      0xfffd63f8

----------------
IN: 
0xfffd6434:  bb 1f 00 00 00           movl     $0x1f, %ebx

----------------
IN: 
0xfffd6439:  45 85 ed                 testl    %r13d, %r13d

----------------
IN: 
0xfffd643c:  7e 08                    jle      0xfffd6446

----------------
IN: 
0xfffd643e:  48 ff cb                 decq     %rbx

----------------
IN: 
0xfffd6441:  45 01 ed                 addl     %r13d, %r13d

----------------
IN: 
0xfffd6444:  eb f3                    jmp      0xfffd6439

----------------
IN: 
0xfffd6446:  ff cb                    decl     %ebx

----------------
IN: 
0xfffd6448:  b9 e0 03 00 00           movl     $0x3e0, %ecx

----------------
IN: 
0xfffd644d:  e8 0f a7 ff ff           callq    0xfffd0b61

----------------
IN: 
0xfffd6452:  89 de                    movl     %ebx, %esi

----------------
IN: 
0xfffd6454:  83 e3 03                 andl     $3, %ebx

----------------
IN: 
0xfffd6457:  b9 e0 03 00 00           movl     $0x3e0, %ecx

----------------
IN: 
0xfffd645c:  83 e6 07                 andl     $7, %esi

----------------
IN: 
0xfffd645f:  89 c2                    movl     %eax, %edx

----------------
IN: 
0xfffd6461:  83 e0 f4                 andl     $0xfffffff4, %eax

----------------
IN: 
0xfffd6464:  c1 ee 02                 shrl     $2, %esi

----------------
IN: 
0xfffd6467:  c1 e6 03                 shll     $3, %esi

----------------
IN: 
0xfffd646a:  09 f3                    orl      %esi, %ebx

----------------
IN: 
0xfffd646c:  88 da                    movb     %bl, %dl

----------------
IN: 
0xfffd646e:  08 c2                    orb      %al, %dl

----------------
IN: 
0xfffd6470:  e8 b3 a8 ff ff           callq    0xfffd0d28

----------------
IN: 
0xfffd1ab7:  e8 4b f3 ff ff           callq    0xfffd0e07

----------------
IN: 
0xfffd1abc:  48 83 c4 20              addq     $0x20, %rsp

----------------
IN: 
0xfffd1ac0:  45 84 e4                 testb    %r12b, %r12b

----------------
IN: 
0xfffd1ac3:  74 7d                    je       0xfffd1b42

----------------
IN: 
0xfffd1ac5:  48 83 ec 20              subq     $0x20, %rsp

----------------
IN: 
0xfffd1ac9:  e8 68 e4 ff ff           callq    0xfffcff36

----------------
IN: 
0xfffd1ace:  48 83 c4 20              addq     $0x20, %rsp

----------------
IN: 
0xfffd1ad2:  84 c0                    testb    %al, %al

----------------
IN: 
0xfffd1ad4:  74 6c                    je       0xfffd1b42

----------------
IN: 
0xfffd1ad6:  48 83 ec 20              subq     $0x20, %rsp

----------------
IN: 
0xfffd1ada:  4c 8d 05 8c 74 00 00     leaq     0x748c(%rip), %r8

----------------
IN: 
0xfffd1ae1:  ba 5f 00 00 00           movl     $0x5f, %edx

----------------
IN: 
0xfffd1ae6:  4c 89 f1                 movq     %r14, %rcx

----------------
IN: 
0xfffd1ae9:  e8 7a bf ff ff           callq    0xfffcda68

----------------
IN: 
0xfffd1aee:  45 31 c0                 xorl     %r8d, %r8d

----------------
IN: 
0xfffd1af1:  b9 40 00 00 00           movl     $0x40, %ecx

----------------
IN: 
0xfffd1af6:  48 8d 15 4a 88 00 00     leaq     0x884a(%rip), %rdx

----------------
IN: 
0xfffd1afd:  e8 46 df ff ff           callq    0xfffcfa48

----------------
IN: 
0xfffd67e8:  48 89 d9                 movq     %rbx, %rcx

----------------
IN: 
0xfffd1b02:  4d 89 e8                 movq     %r13, %r8

----------------
IN: 
0xfffd1b05:  b9 40 00 00 00           movl     $0x40, %ecx

----------------
IN: 
0xfffd1b0a:  48 8d 15 56 88 00 00     leaq     0x8856(%rip), %rdx

----------------
IN: 
0xfffd1b11:  e8 32 df ff ff           callq    0xfffcfa48

----------------
IN: 
0xfffd1b16:  45 31 c0                 xorl     %r8d, %r8d

----------------
IN: 
0xfffd1b19:  b9 40 00 00 00           movl     $0x40, %ecx

----------------
IN: 
0xfffd1b1e:  48 8d 15 62 88 00 00     leaq     0x8862(%rip), %rdx

----------------
IN: 
0xfffd1b25:  e8 1e df ff ff           callq    0xfffcfa48

----------------
IN: 
0xfffd1b2a:  45 31 c0                 xorl     %r8d, %r8d

----------------
IN: 
0xfffd1b2d:  b9 40 00 00 00           movl     $0x40, %ecx

----------------
IN: 
0xfffd1b32:  48 8d 15 6e 88 00 00     leaq     0x886e(%rip), %rdx

----------------
IN: 
0xfffd1b39:  e8 0a df ff ff           callq    0xfffcfa48

----------------
IN: 
0xfffd1b3e:  48 83 c4 20              addq     $0x20, %rsp

----------------
IN: 
0xfffd1b42:  48 85 db                 testq    %rbx, %rbx

----------------
IN: 
0xfffd1b45:  74 04                    je       0xfffd1b4b

----------------
IN: 
0xfffd1b47:  31 c0                    xorl     %eax, %eax

----------------
IN: 
0xfffd1b49:  89 03                    movl     %eax, (%rbx)

----------------
IN: 
0xfffd1b4b:  48 8d 65 e0              leaq     -0x20(%rbp), %rsp

----------------
IN: 
0xfffd1b4f:  31 c0                    xorl     %eax, %eax

----------------
IN: 
0xfffd1b51:  5b                       popq     %rbx

----------------
IN: 
0xfffd1b52:  41 5c                    popq     %r12

----------------
IN: 
0xfffd1b54:  41 5d                    popq     %r13

----------------
IN: 
0xfffd1b56:  41 5e                    popq     %r14

----------------
IN: 
0xfffd1b58:  5d                       popq     %rbp

----------------
IN: 
0xfffd1b59:  c3                       retq     

----------------
IN: 
0xfffd3995:  8b 95 f4 fc ff ff        movl     -0x30c(%rbp), %edx

----------------
IN: 
0xfffd399b:  be 07 00 00 00           movl     $7, %esi

----------------
IN: 
0xfffd39a0:  48 8b bd e8 fc ff ff     movq     -0x318(%rbp), %rdi

----------------
IN: 
0xfffd39a7:  e8 e5 e6 ff ff           callq    0xfffd2091

----------------
IN: 
0xfffd20bc:  48 8d 15 e5 9b 00 00     leaq     0x9be5(%rip), %rdx

----------------
IN: 
0xfffd20c3:  48 63 04 b2              movslq   (%rdx, %rsi, 4), %rax

----------------
IN: 
0xfffd20c7:  48 01 d0                 addq     %rdx, %rax

----------------
IN: 
0xfffd20ca:  ff e0                    jmpq     *%rax

----------------
IN: 
0xfffd21f0:  48 8d 4f 1b              leaq     0x1b(%rdi), %rcx

----------------
IN: 
0xfffd21f4:  48 83 ec 20              subq     $0x20, %rsp

----------------
IN: 
0xfffd21f8:  ba 04 00 00 00           movl     $4, %edx

----------------
IN: 
0xfffd21fd:  e8 b1 d4 ff ff           callq    0xfffcf6b3

----------------
IN: 
0xfffd2202:  ba 04 00 00 00           movl     $4, %edx

----------------
IN: 
0xfffd2207:  4c 89 e9                 movq     %r13, %rcx

----------------
IN: 
0xfffd220a:  41 01 c6                 addl     %eax, %r14d

----------------
IN: 
0xfffd220d:  e8 a1 d4 ff ff           callq    0xfffcf6b3

----------------
IN: 
0xfffd2212:  44 89 63 1b              movl     %r12d, 0x1b(%rbx)

----------------
IN: 
0xfffd2216:  41 29 c6                 subl     %eax, %r14d

----------------
IN: 
0xfffd2219:  44 88 73 20              movb     %r14b, 0x20(%rbx)

----------------
IN: 
0xfffd39ac:  48 8b 85 e0 fc ff ff     movq     -0x320(%rbp), %rax

----------------
IN: 
0xfffd39b3:  c7 85 10 fd ff ff 01 00  movl     $1, -0x2f0(%rbp)
0xfffd39bb:  00 00

----------------
IN: 
0xfffd39bd:  48 89 85 18 fd ff ff     movq     %rax, -0x2e8(%rbp)

----------------
IN: 
0xfffd39c4:  48 8d 05 14 d7 ff ff     leaq     -0x28ec(%rip), %rax

----------------
IN: 
0xfffd39cb:  48 89 85 20 fd ff ff     movq     %rax, -0x2e0(%rbp)

----------------
IN: 
0xfffd39d2:  e8 a1 9e ff ff           callq    0xfffcd878

----------------
IN: 
0xfffcd878:  55                       pushq    %rbp

----------------
IN: 
0xfffcd879:  ba 87 00 00 00           movl     $0x87, %edx

----------------
IN: 
0xfffcd87e:  b9 fb 03 00 00           movl     $0x3fb, %ecx

----------------
IN: 
0xfffcd883:  48 89 e5                 movq     %rsp, %rbp

----------------
IN: 
0xfffcd886:  48 83 ec 20              subq     $0x20, %rsp

----------------
IN: 
0xfffcd88a:  e8 bc ff ff ff           callq    0xfffcd84b

----------------
IN: 
0xfffcd88f:  31 d2                    xorl     %edx, %edx

----------------
IN: 
0xfffcd891:  b9 f9 03 00 00           movl     $0x3f9, %ecx

----------------
IN: 
0xfffcd896:  e8 b0 ff ff ff           callq    0xfffcd84b

----------------
IN: 
0xfffcd89b:  ba 01 00 00 00           movl     $1, %edx

----------------
IN: 
0xfffcd8a0:  b9 f8 03 00 00           movl     $0x3f8, %ecx

----------------
IN: 
0xfffcd8a5:  e8 a1 ff ff ff           callq    0xfffcd84b

----------------
IN: 
0xfffcd8aa:  ba 07 00 00 00           movl     $7, %edx

----------------
IN: 
0xfffcd8af:  b9 fb 03 00 00           movl     $0x3fb, %ecx

----------------
IN: 
0xfffcd8b4:  e8 92 ff ff ff           callq    0xfffcd84b

----------------
IN: 
0xfffcd8b9:  31 c0                    xorl     %eax, %eax

----------------
IN: 
0xfffcd8bb:  c9                       leave    

----------------
IN: 
0xfffcd8bc:  c3                       retq     

----------------
IN: 
0xfffd39d7:  48 85 c0                 testq    %rax, %rax

----------------
IN: 
0xfffd39da:  79 16                    jns      0xfffd39f2

----------------
IN: 
0xfffd39f2:  31 d2                    xorl     %edx, %edx

----------------
IN: 
0xfffd39f4:  48 89 d9                 movq     %rbx, %rcx

----------------
IN: 
0xfffd39f7:  e8 24 ed ff ff           callq    0xfffd2720

----------------
IN: 
0xfffd2720:  55                       pushq    %rbp

----------------
IN: 
0xfffd2721:  48 89 e5                 movq     %rsp, %rbp

----------------
IN: 
0xfffd2724:  57                       pushq    %rdi

----------------
IN: 
0xfffd2725:  56                       pushq    %rsi

----------------
IN: 
0xfffd2726:  53                       pushq    %rbx

----------------
IN: 
0xfffd2727:  48 89 cb                 movq     %rcx, %rbx

----------------
IN: 
0xfffd272a:  48 83 ec 38              subq     $0x38, %rsp

----------------
IN: 
0xfffd272e:  48 89 55 d8              movq     %rdx, -0x28(%rbp)

----------------
IN: 
0xfffd2732:  e8 eb f0 ff ff           callq    0xfffd1822

----------------
IN: 
0xfffd2737:  48 8b 55 d8              movq     -0x28(%rbp), %rdx

----------------
IN: 
0xfffd273b:  be 02 00 00 00           movl     $2, %esi

----------------
IN: 
0xfffd2740:  48 8b 38                 movq     (%rax), %rdi

----------------
IN: 
0xfffd2743:  e8 49 f9 ff ff           callq    0xfffd2091

----------------
IN: 
0xfffd20fc:  48 8d 4f 08              leaq     8(%rdi), %rcx

----------------
IN: 
0xfffd2100:  48 83 ec 20              subq     $0x20, %rsp

----------------
IN: 
0xfffd2104:  ba 08 00 00 00           movl     $8, %edx

----------------
IN: 
0xfffd2109:  e8 a5 d5 ff ff           callq    0xfffcf6b3

----------------
IN: 
0xfffd210e:  ba 08 00 00 00           movl     $8, %edx

----------------
IN: 
0xfffd2113:  4c 89 e9                 movq     %r13, %rcx

----------------
IN: 
0xfffd2116:  41 01 c6                 addl     %eax, %r14d

----------------
IN: 
0xfffd2119:  e8 95 d5 ff ff           callq    0xfffcf6b3

----------------
IN: 
0xfffd211e:  4c 89 63 08              movq     %r12, 8(%rbx)

----------------
IN: 
0xfffd2122:  41 29 c6                 subl     %eax, %r14d

----------------
IN: 
0xfffd2125:  44 88 73 20              movb     %r14b, 0x20(%rbx)

----------------
IN: 
0xfffd2129:  e9 ef 00 00 00           jmp      0xfffd221d

----------------
IN: 
0xfffd2748:  bf 53 59 53 52           movl     $0x52535953, %edi

----------------
IN: 
0xfffd274d:  e8 4e 9c ff ff           callq    0xfffcc3a0

----------------
IN: 
0xfffcc3a0:  0f 21 c2                 movq     %dr0, %rdx

----------------
IN: 
0xfffcc3a3:  0f 21 c8                 movq     %dr1, %rax

----------------
IN: 
0xfffcc3a6:  b9 53 4f 46 54           movl     $0x54464f53, %ecx

----------------
IN: 
0xfffcc3ab:  0f 23 c1                 movq     %rcx, %dr0

----------------
IN: 
0xfffcc3ae:  89 ff                    movl     %edi, %edi

----------------
IN: 
0xfffcc3b0:  0f 23 cf                 movq     %rdi, %dr1

----------------
IN: 
0xfffcc3b3:  cc                       int3     

----------------
IN: 
0xfffd8861:  fa                       cli      

----------------
IN: 
0xfffd8862:  51                       pushq    %rcx

----------------
IN: 
0xfffd8863:  48 c7 c1 03 00 00 00     movq     $3, %rcx

----------------
IN: 
0xfffd886a:  ff 25 e8 44 00 00        jmpq     *0x44e8(%rip)

----------------
IN: 
0xfffd89b3:  48 83 f9 08              cmpq     $8, %rcx

----------------
IN: 
0xfffd89b7:  74 30                    je       0xfffd89e9

----------------
IN: 
0xfffd89b9:  48 83 f9 0a              cmpq     $0xa, %rcx

----------------
IN: 
0xfffd89bd:  74 2a                    je       0xfffd89e9

----------------
IN: 
0xfffd89bf:  48 83 f9 0b              cmpq     $0xb, %rcx

----------------
IN: 
0xfffd89c3:  74 24                    je       0xfffd89e9

----------------
IN: 
0xfffd89c5:  48 83 f9 0c              cmpq     $0xc, %rcx

----------------
IN: 
0xfffd89c9:  74 1e                    je       0xfffd89e9

----------------
IN: 
0xfffd89cb:  48 83 f9 0d              cmpq     $0xd, %rcx

----------------
IN: 
0xfffd89cf:  74 18                    je       0xfffd89e9

----------------
IN: 
0xfffd89d1:  48 83 f9 0e              cmpq     $0xe, %rcx

----------------
IN: 
0xfffd89d5:  74 12                    je       0xfffd89e9

----------------
IN: 
0xfffd89d7:  48 83 f9 11              cmpq     $0x11, %rcx

----------------
IN: 
0xfffd89db:  74 0c                    je       0xfffd89e9

----------------
IN: 
0xfffd89dd:  ff 34 24                 pushq    (%rsp)

----------------
IN: 
0xfffd89e0:  48 c7 44 24 08 00 00 00  movq     $0, 8(%rsp)
0xfffd89e8:  00

----------------
IN: 
0xfffd89e9:  55                       pushq    %rbp

----------------
IN: 
0xfffd89ea:  48 89 e5                 movq     %rsp, %rbp

----------------
IN: 
0xfffd89ed:  41 57                    pushq    %r15

----------------
IN: 
0xfffd89ef:  41 56                    pushq    %r14

----------------
IN: 
0xfffd89f1:  41 55                    pushq    %r13

----------------
IN: 
0xfffd89f3:  41 54                    pushq    %r12

----------------
IN: 
0xfffd89f5:  41 53                    pushq    %r11

----------------
IN: 
0xfffd89f7:  41 52                    pushq    %r10

----------------
IN: 
0xfffd89f9:  41 51                    pushq    %r9

----------------
IN: 
0xfffd89fb:  41 50                    pushq    %r8

----------------
IN: 
0xfffd89fd:  45 0f 20 c0              movq     %cr8, %r8

----------------
IN: 
0xfffd8a01:  41 50                    pushq    %r8

----------------
IN: 
0xfffd8a03:  50                       pushq    %rax

----------------
IN: 
0xfffd8a04:  53                       pushq    %rbx

----------------
IN: 
0xfffd8a05:  ff 75 08                 pushq    8(%rbp)

----------------
IN: 
0xfffd8a08:  52                       pushq    %rdx

----------------
IN: 
0xfffd8a09:  ff 75 30                 pushq    0x30(%rbp)

----------------
IN: 
0xfffd8a0c:  ff 75 00                 pushq    (%rbp)

----------------
IN: 
0xfffd8a0f:  56                       pushq    %rsi

----------------
IN: 
0xfffd8a10:  57                       pushq    %rdi

----------------
IN: 
0xfffd8a11:  0f 20 e0                 movq     %cr4, %rax

----------------
IN: 
0xfffd8a14:  48 0d 08 02 00 00        orq      $0x208, %rax

----------------
IN: 
0xfffd8a1a:  0f 22 e0                 movq     %rax, %cr4

----------------
IN: 
0xfffd8a1d:  50                       pushq    %rax

----------------
IN: 
0xfffd8a1e:  0f 20 d8                 movq     %cr3, %rax

----------------
IN: 
0xfffd8a21:  50                       pushq    %rax

----------------
IN: 
0xfffd8a22:  0f 20 d0                 movq     %cr2, %rax

----------------
IN: 
0xfffd8a25:  50                       pushq    %rax

----------------
IN: 
0xfffd8a26:  6a 00                    pushq    $0

----------------
IN: 
0xfffd8a28:  0f 20 c0                 movq     %cr0, %rax

----------------
IN: 
0xfffd8a2b:  50                       pushq    %rax

----------------
IN: 
0xfffd8a2c:  48 31 c0                 xorq     %rax, %rax

----------------
IN: 
0xfffd8a2f:  8c d0                    movl     %ss, %eax

----------------
IN: 
0xfffd8a31:  50                       pushq    %rax

----------------
IN: 
0xfffd8a32:  8c c8                    movl     %cs, %eax

----------------
IN: 
0xfffd8a34:  50                       pushq    %rax

----------------
IN: 
0xfffd8a35:  8c d8                    movl     %ds, %eax

----------------
IN: 
0xfffd8a37:  50                       pushq    %rax

----------------
IN: 
0xfffd8a38:  8c c0                    movl     %es, %eax

----------------
IN: 
0xfffd8a3a:  50                       pushq    %rax

----------------
IN: 
0xfffd8a3b:  8c e0                    movl     %fs, %eax

----------------
IN: 
0xfffd8a3d:  50                       pushq    %rax

----------------
IN: 
0xfffd8a3e:  8c e8                    movl     %gs, %eax

----------------
IN: 
0xfffd8a40:  50                       pushq    %rax

----------------
IN: 
0xfffd8a41:  48 8b 45 18              movq     0x18(%rbp), %rax

----------------
IN: 
0xfffd8a45:  50                       pushq    %rax

----------------
IN: 
0xfffd8a46:  48 83 ec 10              subq     $0x10, %rsp

----------------
IN: 
0xfffd8a4a:  0f 01 0c 24              sidtq    (%rsp)

----------------
IN: 
0xfffd8a4e:  48 83 ec 10              subq     $0x10, %rsp

----------------
IN: 
0xfffd8a52:  0f 01 04 24              sgdtq    (%rsp)

----------------
IN: 
0xfffd8a56:  48 31 c0                 xorq     %rax, %rax

----------------
IN: 
0xfffd8a59:  66 0f 00 c8              strw     %ax

----------------
IN: 
0xfffd8a5d:  50                       pushq    %rax

----------------
IN: 
0xfffd8a5e:  66 0f 00 c0              sldtw    %ax

----------------
IN: 
0xfffd8a62:  50                       pushq    %rax

----------------
IN: 
0xfffd8a63:  48 8b 45 28              movq     0x28(%rbp), %rax

----------------
IN: 
0xfffd8a67:  50                       pushq    %rax

----------------
IN: 
0xfffd8a68:  0f 21 f8                 movq     %dr7, %rax

----------------
IN: 
0xfffd8a6b:  50                       pushq    %rax

----------------
IN: 
0xfffd8a6c:  48 31 c0                 xorq     %rax, %rax

----------------
IN: 
0xfffd8a6f:  0f 23 f8                 movq     %rax, %dr7

----------------
IN: 
0xfffd8a72:  0f 21 f0                 movq     %dr6, %rax

----------------
IN: 
0xfffd8a75:  50                       pushq    %rax

----------------
IN: 
0xfffd8a76:  48 31 c0                 xorq     %rax, %rax

----------------
IN: 
0xfffd8a79:  0f 23 f0                 movq     %rax, %dr6

----------------
IN: 
0xfffd8a7c:  0f 21 d8                 movq     %dr3, %rax

----------------
IN: 
0xfffd8a7f:  50                       pushq    %rax

----------------
IN: 
0xfffd8a80:  0f 21 d0                 movq     %dr2, %rax

----------------
IN: 
0xfffd8a83:  50                       pushq    %rax

----------------
IN: 
0xfffd8a84:  0f 21 c8                 movq     %dr1, %rax

----------------
IN: 
0xfffd8a87:  50                       pushq    %rax

----------------
IN: 
0xfffd8a88:  0f 21 c0                 movq     %dr0, %rax

----------------
IN: 
0xfffd8a8b:  50                       pushq    %rax

----------------
IN: 
0xfffd8a8c:  fc                       cld      

----------------
IN: 
0xfffd8a8d:  48 81 ec 00 02 00 00     subq     $0x200, %rsp

----------------
IN: 
0xfffd8a94:  48 89 e7                 movq     %rsp, %rdi

----------------
IN: 
0xfffd8a97:  48 31 c0                 xorq     %rax, %rax

----------------
IN: 
0xfffd8a9a:  51                       pushq    %rcx

----------------
IN: 
0xfffd8a9b:  48 c7 c1 40 00 00 00     movq     $0x40, %rcx

----------------
IN: 
0xfffd8aa2:  f3 48 ab                 rep stosq %rax, (%rdi)

----------------
IN: 
0xfffd8aa5:  59                       popq     %rcx

----------------
IN: 
0xfffd8aa6:  48 89 e7                 movq     %rsp, %rdi

----------------
IN: 
0xfffd8aa9:  0f ae 07                 fxsave   (%rdi)

----------------
IN: 
0xfffd8aac:  ff 75 10                 pushq    0x10(%rbp)

----------------
IN: 
0xfffd8aaf:  48 89 e2                 movq     %rsp, %rdx

----------------
IN: 
0xfffd8ab2:  49 89 cf                 movq     %rcx, %r15

----------------
IN: 
0xfffd8ab5:  48 83 ec 28              subq     $0x28, %rsp

----------------
IN: 
0xfffd8ab9:  e8 26 b8 ff ff           callq    0xfffd42e4

----------------
IN: 
0xfffd42e4:  55                       pushq    %rbp

----------------
IN: 
0xfffd42e5:  48 89 e5                 movq     %rsp, %rbp

----------------
IN: 
0xfffd42e8:  41 57                    pushq    %r15

----------------
IN: 
0xfffd42ea:  41 56                    pushq    %r14

----------------
IN: 
0xfffd42ec:  41 55                    pushq    %r13

----------------
IN: 
0xfffd42ee:  41 89 cd                 movl     %ecx, %r13d

----------------
IN: 
0xfffd42f1:  41 54                    pushq    %r12

----------------
IN: 
0xfffd42f3:  57                       pushq    %rdi

----------------
IN: 
0xfffd42f4:  bf 08 00 00 00           movl     $8, %edi

----------------
IN: 
0xfffd42f9:  56                       pushq    %rsi

----------------
IN: 
0xfffd42fa:  53                       pushq    %rbx

----------------
IN: 
0xfffd42fb:  48 89 d3                 movq     %rdx, %rbx

----------------
IN: 
0xfffd42fe:  48 83 ec 48              subq     $0x48, %rsp

----------------
IN: 
0xfffd4302:  c6 45 b1 00              movb     $0, -0x4f(%rbp)

----------------
IN: 
0xfffd4306:  e8 77 e2 ff ff           callq    0xfffd2582

----------------
IN: 
0xfffd2582:  55                       pushq    %rbp

----------------
IN: 
0xfffd2583:  48 89 e5                 movq     %rsp, %rbp

----------------
IN: 
0xfffd2586:  53                       pushq    %rbx

----------------
IN: 
0xfffd2587:  48 89 fb                 movq     %rdi, %rbx

----------------
IN: 
0xfffd258a:  50                       pushq    %rax

----------------
IN: 
0xfffd258b:  e8 b8 fc ff ff           callq    0xfffd2248

----------------
IN: 
0xfffd2590:  48 0f bc cb              bsfq     %rbx, %rcx

----------------
IN: 
0xfffd2594:  48 23 18                 andq     (%rax), %rbx

----------------
IN: 
0xfffd2597:  5a                       popq     %rdx

----------------
IN: 
0xfffd2598:  48 d3 eb                 shrq     %cl, %rbx

----------------
IN: 
0xfffd259b:  48 89 d8                 movq     %rbx, %rax

----------------
IN: 
0xfffd259e:  5b                       popq     %rbx

----------------
IN: 
0xfffd259f:  5d                       popq     %rbp

----------------
IN: 
0xfffd25a0:  c3                       retq     

----------------
IN: 
0xfffd430b:  ff c8                    decl     %eax

----------------
IN: 
0xfffd430d:  75 36                    jne      0xfffd4345

----------------
IN: 
0xfffd4345:  bf 02 00 00 00           movl     $2, %edi

----------------
IN: 
0xfffd434a:  e8 33 e2 ff ff           callq    0xfffd2582

----------------
IN: 
0xfffd434f:  ff c8                    decl     %eax

----------------
IN: 
0xfffd4351:  75 bc                    jne      0xfffd430f

----------------
IN: 
0xfffd430f:  e8 b8 df ff ff           callq    0xfffd22cc

----------------
IN: 
0xfffd22cc:  55                       pushq    %rbp

----------------
IN: 
0xfffd22cd:  48 89 e5                 movq     %rsp, %rbp

----------------
IN: 
0xfffd22d0:  e8 73 ff ff ff           callq    0xfffd2248

----------------
IN: 
0xfffd22d5:  5d                       popq     %rbp

----------------
IN: 
0xfffd22d6:  48 8b 40 08              movq     8(%rax), %rax

----------------
IN: 
0xfffd22da:  c3                       retq     

----------------
IN: 
0xfffd4314:  45 89 ee                 movl     %r13d, %r14d

----------------
IN: 
0xfffd4317:  48 89 de                 movq     %rbx, %rsi

----------------
IN: 
0xfffd431a:  4c 89 f7                 movq     %r14, %rdi

----------------
IN: 
0xfffd431d:  48 89 45 a8              movq     %rax, -0x58(%rbp)

----------------
IN: 
0xfffd4321:  e8 03 e3 ff ff           callq    0xfffd2629

----------------
IN: 
0xfffd2629:  48 83 ff 03              cmpq     $3, %rdi

----------------
IN: 
0xfffd262d:  74 26                    je       0xfffd2655

----------------
IN: 
0xfffd2655:  b0 03                    movb     $3, %al

----------------
IN: 
0xfffd2657:  48 8b 96 08 02 00 00     movq     0x208(%rsi), %rdx

----------------
IN: 
0xfffd265e:  48 81 fa 55 4e 4c 4f     cmpq     $0x4f4c4e55, %rdx

----------------
IN: 
0xfffd2665:  74 12                    je       0xfffd2679

----------------
IN: 
0xfffd2667:  48 81 fa 53 4f 46 54     cmpq     $0x54464f53, %rdx

----------------
IN: 
0xfffd266e:  74 24                    je       0xfffd2694

----------------
IN: 
0xfffd2694:  48 8b 96 10 02 00 00     movq     0x210(%rsi), %rdx

----------------
IN: 
0xfffd269b:  48 81 fa 4d 45 4d 52     cmpq     $0x524d454d, %rdx

----------------
IN: 
0xfffd26a2:  75 0c                    jne      0xfffd26b0

----------------
IN: 
0xfffd26b0:  48 81 fa 53 59 53 52     cmpq     $0x52535953, %rdx

----------------
IN: 
0xfffd26b7:  75 2e                    jne      0xfffd26e7

----------------
IN: 
0xfffd26b9:  31 c0                    xorl     %eax, %eax

----------------
IN: 
0xfffd26bb:  48 89 86 08 02 00 00     movq     %rax, 0x208(%rsi)

----------------
IN: 
0xfffd26c2:  b0 07                    movb     $7, %al

----------------
IN: 
0xfffd26c4:  c3                       retq     

----------------
IN: 
0xfffd4326:  41 89 c4                 movl     %eax, %r12d

----------------
IN: 
0xfffd4329:  41 83 fd 03              cmpl     $3, %r13d

----------------
IN: 
0xfffd432d:  74 72                    je       0xfffd43a1

----------------
IN: 
0xfffd43a1:  41 80 fc 07              cmpb     $7, %r12b

----------------
IN: 
0xfffd43a5:  74 58                    je       0xfffd43ff

----------------
IN: 
0xfffd43ff:  48 8d 55 b1              leaq     -0x4f(%rbp), %rdx

----------------
IN: 
0xfffd4403:  be 20 a1 07 00           movl     $0x7a120, %esi

----------------
IN: 
0xfffd4408:  bf 07 00 00 00           movl     $7, %edi

----------------
IN: 
0xfffd440d:  e8 bb fa ff ff           callq    0xfffd3ecd

----------------
IN: 
0xfffd3ecd:  55                       pushq    %rbp

----------------
IN: 
0xfffd3ece:  48 89 e5                 movq     %rsp, %rbp

----------------
IN: 
0xfffd3ed1:  41 55                    pushq    %r13

----------------
IN: 
0xfffd3ed3:  4c 8d 2d 5a 8d 00 00     leaq     0x8d5a(%rip), %r13

----------------
IN: 
0xfffd3eda:  41 54                    pushq    %r12

----------------
IN: 
0xfffd3edc:  41 89 fc                 movl     %edi, %r12d

----------------
IN: 
0xfffd3edf:  53                       pushq    %rbx

----------------
IN: 
0xfffd3ee0:  48 89 d3                 movq     %rdx, %rbx

----------------
IN: 
0xfffd3ee3:  48 83 ec 28              subq     $0x28, %rsp

----------------
IN: 
0xfffd3ee7:  48 89 75 c8              movq     %rsi, -0x38(%rbp)

----------------
IN: 
0xfffd3eeb:  c6 45 df 00              movb     $0, -0x21(%rbp)

----------------
IN: 
0xfffd3eef:  e8 d8 e3 ff ff           callq    0xfffd22cc

----------------
IN: 
0xfffd3ef4:  48 83 ec 20              subq     $0x20, %rsp

----------------
IN: 
0xfffd3ef8:  4c 89 e9                 movq     %r13, %rcx

----------------
IN: 
0xfffd3efb:  e8 4d b8 ff ff           callq    0xfffcf74d

----------------
IN: 
0xfffcf74d:  55                       pushq    %rbp

----------------
IN: 
0xfffcf74e:  48 89 e5                 movq     %rsp, %rbp

----------------
IN: 
0xfffcf751:  56                       pushq    %rsi

----------------
IN: 
0xfffcf752:  48 89 ce                 movq     %rcx, %rsi

----------------
IN: 
0xfffcf755:  53                       pushq    %rbx

----------------
IN: 
0xfffcf756:  31 db                    xorl     %ebx, %ebx

----------------
IN: 
0xfffcf758:  48 83 ec 20              subq     $0x20, %rsp

----------------
IN: 
0xfffcf75c:  80 3c 1e 00              cmpb     $0, (%rsi, %rbx)

----------------
IN: 
0xfffcf760:  74 26                    je       0xfffcf788

----------------
IN: 
0xfffcf762:  48 81 fb 3f 42 0f 00     cmpq     $0xf423f, %rbx

----------------
IN: 
0xfffcf769:  76 18                    jbe      0xfffcf783

----------------
IN: 
0xfffcf783:  48 ff c3                 incq     %rbx

----------------
IN: 
0xfffcf786:  eb d4                    jmp      0xfffcf75c

----------------
IN: 
0xfffcf788:  48 83 c4 20              addq     $0x20, %rsp

----------------
IN: 
0xfffcf78c:  48 89 d8                 movq     %rbx, %rax

----------------
IN: 
0xfffcf78f:  5b                       popq     %rbx

----------------
IN: 
0xfffcf790:  5e                       popq     %rsi

----------------
IN: 
0xfffcf791:  5d                       popq     %rbp

----------------
IN: 
0xfffcf792:  c3                       retq     

----------------
IN: 
0xfffd3f00:  4c 89 e9                 movq     %r13, %rcx

----------------
IN: 
0xfffd3f03:  48 89 c2                 movq     %rax, %rdx

----------------
IN: 
0xfffd3f06:  e8 b2 99 ff ff           callq    0xfffcd8bd

----------------
IN: 
0xfffcd8bd:  55                       pushq    %rbp

----------------
IN: 
0xfffcd8be:  48 89 e5                 movq     %rsp, %rbp

----------------
IN: 
0xfffcd8c1:  57                       pushq    %rdi

----------------
IN: 
0xfffcd8c2:  48 8d 3c 11              leaq     (%rcx, %rdx), %rdi

----------------
IN: 
0xfffcd8c6:  56                       pushq    %rsi

----------------
IN: 
0xfffcd8c7:  48 89 d6                 movq     %rdx, %rsi

----------------
IN: 
0xfffcd8ca:  53                       pushq    %rbx

----------------
IN: 
0xfffcd8cb:  48 89 cb                 movq     %rcx, %rbx

----------------
IN: 
0xfffcd8ce:  48 83 ec 28              subq     $0x28, %rsp

----------------
IN: 
0xfffcd8d2:  48 39 df                 cmpq     %rbx, %rdi

----------------
IN: 
0xfffcd8d5:  74 20                    je       0xfffcd8f7

----------------
IN: 
0xfffcd8d7:  b9 fd 03 00 00           movl     $0x3fd, %ecx

----------------
IN: 
0xfffcd8dc:  e8 07 ff ff ff           callq    0xfffcd7e8

----------------
IN: 
0xfffcd8e1:  a8 20                    testb    $0x20, %al

----------------
IN: 
0xfffcd8e3:  74 f2                    je       0xfffcd8d7

----------------
IN: 
0xfffcd8e5:  0f b6 13                 movzbl   (%rbx), %edx

----------------
IN: 
0xfffcd8e8:  b9 f8 03 00 00           movl     $0x3f8, %ecx

----------------
IN: 
0xfffcd8ed:  48 ff c3                 incq     %rbx

----------------
IN: 
0xfffcd8f0:  e8 56 ff ff ff           callq    0xfffcd84b

----------------
IN: 
0xfffcd8f5:  eb db                    jmp      0xfffcd8d2

----------------
IN: 
0xfffcd8f7:  48 83 c4 28              addq     $0x28, %rsp

----------------
IN: 
0xfffcd8fb:  48 89 f0                 movq     %rsi, %rax

----------------
IN: 
0xfffcd8fe:  5b                       popq     %rbx

----------------
IN: 
0xfffcd8ff:  5e                       popq     %rsi

----------------
IN: 
0xfffcd900:  5f                       popq     %rdi

----------------
IN: 
0xfffcd901:  5d                       popq     %rbp

----------------
IN: 
0xfffcd902:  c3                       retq     

----------------
IN: 
0xfffd3f0b:  48 83 c4 20              addq     $0x20, %rsp

----------------
IN: 
0xfffd3f0f:  41 80 fc 07              cmpb     $7, %r12b

----------------
IN: 
0xfffd3f13:  48 89 da                 movq     %rbx, %rdx

----------------
IN: 
0xfffd3f16:  48 8b 75 c8              movq     -0x38(%rbp), %rsi

----------------
IN: 
0xfffd3f1a:  bf 3f 00 00 00           movl     $0x3f, %edi

----------------
IN: 
0xfffd3f1f:  48 8d 4d df              leaq     -0x21(%rbp), %rcx

----------------
IN: 
0xfffd3f23:  74 05                    je       0xfffd3f2a

----------------
IN: 
0xfffd3f2a:  e8 0e fe ff ff           callq    0xfffd3d3d

----------------
IN: 
0xfffd3d3d:  55                       pushq    %rbp

----------------
IN: 
0xfffd3d3e:  40 0f b6 c7              movzbl   %dil, %eax

----------------
IN: 
0xfffd3d42:  48 89 e5                 movq     %rsp, %rbp

----------------
IN: 
0xfffd3d45:  41 57                    pushq    %r15

----------------
IN: 
0xfffd3d47:  41 56                    pushq    %r14

----------------
IN: 
0xfffd3d49:  41 b6 03                 movb     $3, %r14b

----------------
IN: 
0xfffd3d4c:  41 55                    pushq    %r13

----------------
IN: 
0xfffd3d4e:  41 89 c5                 movl     %eax, %r13d

----------------
IN: 
0xfffd3d51:  41 54                    pushq    %r12

----------------
IN: 
0xfffd3d53:  53                       pushq    %rbx

----------------
IN: 
0xfffd3d54:  48 81 ec 28 01 00 00     subq     $0x128, %rsp

----------------
IN: 
0xfffd3d5b:  48 89 b5 c8 fe ff ff     movq     %rsi, -0x138(%rbp)

----------------
IN: 
0xfffd3d62:  48 89 8d c0 fe ff ff     movq     %rcx, -0x140(%rbp)

----------------
IN: 
0xfffd3d69:  89 85 bc fe ff ff        movl     %eax, -0x144(%rbp)

----------------
IN: 
0xfffd3d6f:  e8 d4 e4 ff ff           callq    0xfffd2248

----------------
IN: 
0xfffd3d74:  8a 58 19                 movb     0x19(%rax), %bl

----------------
IN: 
0xfffd3d77:  e8 cc e4 ff ff           callq    0xfffd2248

----------------
IN: 
0xfffd3d7c:  8b bd bc fe ff ff        movl     -0x144(%rbp), %edi

----------------
IN: 
0xfffd3d82:  0f b6 f3                 movzbl   %bl, %esi

----------------
IN: 
0xfffd3d85:  44 8a 78 1a              movb     0x1a(%rax), %r15b

----------------
IN: 
0xfffd3d89:  e8 c7 e5 ff ff           callq    0xfffd2355

----------------
IN: 
0xfffd2355:  55                       pushq    %rbp

----------------
IN: 
0xfffd2356:  48 89 e5                 movq     %rsp, %rbp

----------------
IN: 
0xfffd2359:  41 54                    pushq    %r12

----------------
IN: 
0xfffd235b:  41 89 fc                 movl     %edi, %r12d

----------------
IN: 
0xfffd235e:  53                       pushq    %rbx

----------------
IN: 
0xfffd235f:  89 f3                    movl     %esi, %ebx

----------------
IN: 
0xfffd2361:  48 83 ec 10              subq     $0x10, %rsp

----------------
IN: 
0xfffd2365:  e8 62 ff ff ff           callq    0xfffd22cc

----------------
IN: 
0xfffd236a:  88 5d ed                 movb     %bl, -0x13(%rbp)

----------------
IN: 
0xfffd236d:  48 8d 5d ea              leaq     -0x16(%rbp), %rbx

----------------
IN: 
0xfffd2371:  31 d2                    xorl     %edx, %edx

----------------
IN: 
0xfffd2373:  48 89 df                 movq     %rbx, %rdi

----------------
IN: 
0xfffd2376:  be 06 00 00 00           movl     $6, %esi

----------------
IN: 
0xfffd237b:  44 88 65 eb              movb     %r12b, -0x15(%rbp)

----------------
IN: 
0xfffd237f:  41 b9 06 00 00 00        movl     $6, %r9d

----------------
IN: 
0xfffd2385:  c6 45 ea fe              movb     $0xfe, -0x16(%rbp)

----------------
IN: 
0xfffd2389:  c6 45 ec 06              movb     $6, -0x14(%rbp)

----------------
IN: 
0xfffd238d:  66 c7 45 ee 00 00        movw     $0, -0x12(%rbp)

----------------
IN: 
0xfffd2393:  e8 78 f8 ff ff           callq    0xfffd1c10

----------------
IN: 
0xfffd1c10:  89 d0                    movl     %edx, %eax

----------------
IN: 
0xfffd1c12:  31 d2                    xorl     %edx, %edx

----------------
IN: 
0xfffd1c14:  48 39 f2                 cmpq     %rsi, %rdx

----------------
IN: 
0xfffd1c17:  74 24                    je       0xfffd1c3d

----------------
IN: 
0xfffd1c19:  0f b6 0c 17              movzbl   (%rdi, %rdx), %ecx

----------------
IN: 
0xfffd1c1d:  31 c8                    xorl     %ecx, %eax

----------------
IN: 
0xfffd1c1f:  b9 08 00 00 00           movl     $8, %ecx

----------------
IN: 
0xfffd1c24:  41 89 c0                 movl     %eax, %r8d

----------------
IN: 
0xfffd1c27:  01 c0                    addl     %eax, %eax

----------------
IN: 
0xfffd1c29:  66 45 85 c0              testw    %r8w, %r8w

----------------
IN: 
0xfffd1c2d:  79 04                    jns      0xfffd1c33

----------------
IN: 
0xfffd1c33:  48 ff c9                 decq     %rcx

----------------
IN: 
0xfffd1c36:  75 ec                    jne      0xfffd1c24

----------------
IN: 
0xfffd1c38:  48 ff c2                 incq     %rdx

----------------
IN: 
0xfffd1c3b:  eb d7                    jmp      0xfffd1c14

----------------
IN: 
0xfffd1c2f:  66 35 21 10              xorw     $0x1021, %ax

----------------
IN: 
0xfffd1c3d:  c3                       retq     

----------------
IN: 
0xfffd2398:  48 83 ec 20              subq     $0x20, %rsp

----------------
IN: 
0xfffd239c:  49 89 d8                 movq     %rbx, %r8

----------------
IN: 
0xfffd239f:  ba 01 00 00 00           movl     $1, %edx

----------------
IN: 
0xfffd23a4:  b9 08 00 00 00           movl     $8, %ecx

----------------
IN: 
0xfffd23a9:  66 89 45 ee              movw     %ax, -0x12(%rbp)

----------------
IN: 
0xfffd23ad:  e8 67 39 00 00           callq    0xfffd5d19

----------------
IN: 
0xfffd5d19:  55                       pushq    %rbp

----------------
IN: 
0xfffd5d1a:  48 89 e5                 movq     %rsp, %rbp

----------------
IN: 
0xfffd5d1d:  41 57                    pushq    %r15

----------------
IN: 
0xfffd5d1f:  4d 89 c7                 movq     %r8, %r15

----------------
IN: 
0xfffd5d22:  41 56                    pushq    %r14

----------------
IN: 
0xfffd5d24:  41 55                    pushq    %r13

----------------
IN: 
0xfffd5d26:  41 54                    pushq    %r12

----------------
IN: 
0xfffd5d28:  45 0f b6 e1              movzbl   %r9b, %r12d

----------------
IN: 
0xfffd5d2c:  57                       pushq    %rdi

----------------
IN: 
0xfffd5d2d:  bf 0f 00 00 00           movl     $0xf, %edi

----------------
IN: 
0xfffd5d32:  56                       pushq    %rsi

----------------
IN: 
0xfffd5d33:  48 c1 e7 21              shlq     $0x21, %rdi

----------------
IN: 
0xfffd5d37:  53                       pushq    %rbx

----------------
IN: 
0xfffd5d38:  89 d3                    movl     %edx, %ebx

----------------
IN: 
0xfffd5d3a:  48 81 ec 28 01 00 00     subq     $0x128, %rsp

----------------
IN: 
0xfffd5d41:  e8 3c c8 ff ff           callq    0xfffd2582

----------------
IN: 
0xfffd5d46:  a8 08                    testb    $8, %al

----------------
IN: 
0xfffd5d48:  0f 84 a3 00 00 00        je       0xfffd5df1

----------------
IN: 
0xfffd5df1:  48 81 c4 28 01 00 00     addq     $0x128, %rsp

----------------
IN: 
0xfffd5df8:  5b                       popq     %rbx

----------------
IN: 
0xfffd5df9:  5e                       popq     %rsi

----------------
IN: 
0xfffd5dfa:  5f                       popq     %rdi

----------------
IN: 
0xfffd5dfb:  41 5c                    popq     %r12

----------------
IN: 
0xfffd5dfd:  41 5d                    popq     %r13

----------------
IN: 
0xfffd5dff:  41 5e                    popq     %r14

----------------
IN: 
0xfffd5e01:  41 5f                    popq     %r15

----------------
IN: 
0xfffd5e03:  5d                       popq     %rbp

----------------
IN: 
0xfffd5e04:  c3                       retq     

----------------
IN: 
0xfffd23b2:  0f b6 55 ec              movzbl   -0x14(%rbp), %edx

----------------
IN: 
0xfffd23b6:  48 89 d9                 movq     %rbx, %rcx

----------------
IN: 
0xfffd23b9:  e8 ff b4 ff ff           callq    0xfffcd8bd

----------------
IN: 
0xfffd23be:  48 83 c4 20              addq     $0x20, %rsp

----------------
IN: 
0xfffd23c2:  48 8d 65 f0              leaq     -0x10(%rbp), %rsp

----------------
IN: 
0xfffd23c6:  5b                       popq     %rbx

----------------
IN: 
0xfffd23c7:  41 5c                    popq     %r12

----------------
IN: 
0xfffd23c9:  5d                       popq     %rbp

----------------
IN: 
0xfffd23ca:  c3                       retq     

----------------
IN: 
0xfffd3d8e:  48 8b 95 c8 fe ff ff     movq     -0x138(%rbp), %rdx

----------------
IN: 
0xfffd3d95:  48 8b b5 c0 fe ff ff     movq     -0x140(%rbp), %rsi

----------------
IN: 
0xfffd3d9c:  31 c9                    xorl     %ecx, %ecx

----------------
IN: 
0xfffd3d9e:  48 8d bd d1 fe ff ff     leaq     -0x12f(%rbp), %rdi

----------------
IN: 
0xfffd3da5:  e8 e1 32 00 00           callq    0xfffd708b

----------------
IN: 
0xfffd708b:  55                       pushq    %rbp

----------------
IN: 
0xfffd708c:  48 89 e5                 movq     %rsp, %rbp

----------------
IN: 
0xfffd708f:  41 57                    pushq    %r15

----------------
IN: 
0xfffd7091:  41 56                    pushq    %r14

----------------
IN: 
0xfffd7093:  41 89 ce                 movl     %ecx, %r14d

----------------
IN: 
0xfffd7096:  41 55                    pushq    %r13

----------------
IN: 
0xfffd7098:  49 89 f5                 movq     %rsi, %r13

----------------
IN: 
0xfffd709b:  41 54                    pushq    %r12

----------------
IN: 
0xfffd709d:  49 89 d4                 movq     %rdx, %r12

----------------
IN: 
0xfffd70a0:  53                       pushq    %rbx

----------------
IN: 
0xfffd70a1:  48 89 fb                 movq     %rdi, %rbx

----------------
IN: 
0xfffd70a4:  48 83 ec 28              subq     $0x28, %rsp

----------------
IN: 
0xfffd70a8:  e8 1f b2 ff ff           callq    0xfffd22cc

----------------
IN: 
0xfffd70ad:  48 89 45 c8              movq     %rax, -0x38(%rbp)

----------------
IN: 
0xfffd70b1:  31 c0                    xorl     %eax, %eax

----------------
IN: 
0xfffd70b3:  45 84 f6                 testb    %r14b, %r14b

----------------
IN: 
0xfffd70b6:  49 0f 44 c4              cmoveq   %r12, %rax

----------------
IN: 
0xfffd70ba:  48 89 45 c0              movq     %rax, -0x40(%rbp)

----------------
IN: 
0xfffd70be:  48 8d 43 01              leaq     1(%rbx), %rax

----------------
IN: 
0xfffd70c2:  48 89 45 b8              movq     %rax, -0x48(%rbp)

----------------
IN: 
0xfffd70c6:  48 8b 4d c0              movq     -0x40(%rbp), %rcx

----------------
IN: 
0xfffd70ca:  48 8b 7d c8              movq     -0x38(%rbp), %rdi

----------------
IN: 
0xfffd70ce:  ba 01 00 00 00           movl     $1, %edx

----------------
IN: 
0xfffd70d3:  48 89 de                 movq     %rbx, %rsi

----------------
IN: 
0xfffd70d6:  e8 f0 b2 ff ff           callq    0xfffd23cb

----------------
IN: 
0xfffd23cb:  55                       pushq    %rbp

----------------
IN: 
0xfffd23cc:  48 89 e5                 movq     %rsp, %rbp

----------------
IN: 
0xfffd23cf:  41 57                    pushq    %r15

----------------
IN: 
0xfffd23d1:  49 89 cf                 movq     %rcx, %r15

----------------
IN: 
0xfffd23d4:  41 56                    pushq    %r14

----------------
IN: 
0xfffd23d6:  41 55                    pushq    %r13

----------------
IN: 
0xfffd23d8:  41 54                    pushq    %r12

----------------
IN: 
0xfffd23da:  53                       pushq    %rbx

----------------
IN: 
0xfffd23db:  48 83 ec 38              subq     $0x38, %rsp

----------------
IN: 
0xfffd23df:  48 89 75 b0              movq     %rsi, -0x50(%rbp)

----------------
IN: 
0xfffd23e3:  48 89 55 a8              movq     %rdx, -0x58(%rbp)

----------------
IN: 
0xfffd23e7:  e8 5c fe ff ff           callq    0xfffd2248

----------------
IN: 
0xfffd23ec:  48 83 ec 20              subq     $0x20, %rsp

----------------
IN: 
0xfffd23f0:  b9 80 03 00 00           movl     $0x380, %ecx

----------------
IN: 
0xfffd23f5:  8b 58 1b                 movl     0x1b(%rax), %ebx

----------------
IN: 
0xfffd23f8:  e8 64 e7 ff ff           callq    0xfffd0b61

----------------
IN: 
0xfffd23fd:  48 83 c4 20              addq     $0x20, %rsp

----------------
IN: 
0xfffd2401:  41 89 c5                 movl     %eax, %r13d

----------------
IN: 
0xfffd2404:  4d 85 ff                 testq    %r15, %r15

----------------
IN: 
0xfffd2407:  74 62                    je       0xfffd246b

----------------
IN: 
0xfffd2409:  48 83 ec 20              subq     $0x20, %rsp

----------------
IN: 
0xfffd240d:  b9 90 03 00 00           movl     $0x390, %ecx

----------------
IN: 
0xfffd2412:  45 89 ee                 movl     %r13d, %r14d

----------------
IN: 
0xfffd2415:  e8 47 e7 ff ff           callq    0xfffd0b61

----------------
IN: 
0xfffd241a:  31 d2                    xorl     %edx, %edx

----------------
IN: 
0xfffd241c:  b9 40 42 0f 00           movl     $0xf4240, %ecx

----------------
IN: 
0xfffd2421:  48 83 c4 20              addq     $0x20, %rsp

----------------
IN: 
0xfffd2425:  41 89 c4                 movl     %eax, %r12d

----------------
IN: 
0xfffd2428:  89 d8                    movl     %ebx, %eax

----------------
IN: 
0xfffd242a:  49 0f af c7              imulq    %r15, %rax

----------------
IN: 
0xfffd242e:  48 f7 f1                 divq     %rcx

----------------
IN: 
0xfffd2431:  41 d1 ee                 shrl     $1, %r14d

----------------
IN: 
0xfffd2434:  89 c3                    movl     %eax, %ebx

----------------
IN: 
0xfffd2436:  75 20                    jne      0xfffd2458

----------------
IN: 
0xfffd2438:  48 83 ec 20              subq     $0x20, %rsp

----------------
IN: 
0xfffd243c:  4c 8d 05 19 80 00 00     leaq     0x8019(%rip), %r8

----------------
IN: 
0xfffd2443:  ba 26 00 00 00           movl     $0x26, %edx

----------------
IN: 
0xfffd2448:  48 8d 0d 1a 80 00 00     leaq     0x801a(%rip), %rcx

----------------
IN: 
0xfffd244f:  e8 14 b6 ff ff           callq    0xfffcda68

----------------
IN: 
0xfffd2454:  48 83 c4 20              addq     $0x20, %rsp

----------------
IN: 
0xfffd2458:  48 89 d8                 movq     %rbx, %rax

----------------
IN: 
0xfffd245b:  45 89 f6                 movl     %r14d, %r14d

----------------
IN: 
0xfffd245e:  31 d2                    xorl     %edx, %edx

----------------
IN: 
0xfffd2460:  49 f7 f6                 divq     %r14

----------------
IN: 
0xfffd8828:  fa                       cli      

----------------
IN: 
0xfffd8829:  51                       pushq    %rcx

----------------
IN: 
0xfffd882a:  48 c7 c1 00 00 00 00     movq     $0, %rcx

----------------
IN: 
0xfffd8831:  ff 25 21 45 00 00        jmpq     *0x4521(%rip)

----------------
IN: 
0xfffd262f:  b0 04                    movb     $4, %al

----------------
IN: 
0xfffd2631:  48 83 ff 20              cmpq     $0x20, %rdi

----------------
IN: 
0xfffd2635:  0f 84 ac 00 00 00        je       0xfffd26e7

----------------
IN: 
0xfffd263b:  48 83 ff 01              cmpq     $1, %rdi

----------------
IN: 
0xfffd263f:  0f 85 80 00 00 00        jne      0xfffd26c5

----------------
IN: 
0xfffd26c5:  31 c0                    xorl     %eax, %eax

----------------
IN: 
0xfffd26c7:  48 83 ff 13              cmpq     $0x13, %rdi

----------------
IN: 
0xfffd26cb:  77 1a                    ja       0xfffd26e7

----------------
IN: 
0xfffd26cd:  55                       pushq    %rbp

----------------
IN: 
0xfffd26ce:  bf 08 00 00 00           movl     $8, %edi

----------------
IN: 
0xfffd26d3:  48 89 e5                 movq     %rsp, %rbp

----------------
IN: 
0xfffd26d6:  e8 a7 fe ff ff           callq    0xfffd2582

----------------
IN: 
0xfffd26db:  ff c8                    decl     %eax

----------------
IN: 
0xfffd26dd:  b0 02                    movb     $2, %al

----------------
IN: 
0xfffd26df:  74 02                    je       0xfffd26e3

----------------
IN: 
0xfffd26e1:  b0 08                    movb     $8, %al

----------------
IN: 
0xfffd26e3:  5d                       popq     %rbp

----------------
IN: 
0xfffd26e4:  c3                       retq     

----------------
IN: 
0xfffd432f:  41 83 fd 20              cmpl     $0x20, %r13d

----------------
IN: 
0xfffd4333:  0f 84 d2 01 00 00        je       0xfffd450b

----------------
IN: 
0xfffd4339:  41 83 fd 01              cmpl     $1, %r13d

----------------
IN: 
0xfffd433d:  0f 85 3b 03 00 00        jne      0xfffd467e

----------------
IN: 
0xfffd467e:  41 83 fd 13              cmpl     $0x13, %r13d

----------------
IN: 
0xfffd4682:  77 7f                    ja       0xfffd4703

----------------
IN: 
0xfffd4684:  4c 8b 8b 70 02 00 00     movq     0x270(%rbx), %r9

----------------
IN: 
0xfffd468b:  45 89 e8                 movl     %r13d, %r8d

----------------
IN: 
0xfffd468e:  b9 01 00 00 00           movl     $1, %ecx

----------------
IN: 
0xfffd4693:  48 8d 15 34 67 00 00     leaq     0x6734(%rip), %rdx

----------------
IN: 
0xfffd469a:  e8 02 df ff ff           callq    0xfffd25a1

----------------
IN: 
0xfffd25a1:  55                       pushq    %rbp

----------------
IN: 
0xfffd25a2:  48 89 e5                 movq     %rsp, %rbp

----------------
IN: 
0xfffd25a5:  57                       pushq    %rdi

----------------
IN: 
0xfffd25a6:  bf 0f 00 00 00           movl     $0xf, %edi

----------------
IN: 
0xfffd25ab:  56                       pushq    %rsi

----------------
IN: 
0xfffd25ac:  48 c1 e7 21              shlq     $0x21, %rdi

----------------
IN: 
0xfffd25b0:  53                       pushq    %rbx

----------------
IN: 
0xfffd25b1:  89 cb                    movl     %ecx, %ebx

----------------
IN: 
0xfffd25b3:  0f b6 db                 movzbl   %bl, %ebx

----------------
IN: 
0xfffd25b6:  48 81 ec 38 01 00 00     subq     $0x138, %rsp

----------------
IN: 
0xfffd25bd:  48 89 55 18              movq     %rdx, 0x18(%rbp)

----------------
IN: 
0xfffd25c1:  4c 89 45 20              movq     %r8, 0x20(%rbp)

----------------
IN: 
0xfffd25c5:  4c 89 4d 28              movq     %r9, 0x28(%rbp)

----------------
IN: 
0xfffd25c9:  e8 b4 ff ff ff           callq    0xfffd2582

----------------
IN: 
0xfffd25ce:  85 c3                    testl    %eax, %ebx

----------------
IN: 
0xfffd25d0:  74 36                    je       0xfffd2608

----------------
IN: 
0xfffd25d2:  48 8d 9d e7 fe ff ff     leaq     -0x119(%rbp), %rbx

----------------
IN: 
0xfffd25d9:  48 8b 55 18              movq     0x18(%rbp), %rdx

----------------
IN: 
0xfffd25dd:  48 8d 4d 20              leaq     0x20(%rbp), %rcx

----------------
IN: 
0xfffd25e1:  be f9 00 00 00           movl     $0xf9, %esi

----------------
IN: 
0xfffd25e6:  48 89 df                 movq     %rbx, %rdi

----------------
IN: 
0xfffd25e9:  48 89 8d d8 fe ff ff     movq     %rcx, -0x128(%rbp)

----------------
IN: 
0xfffd25f0:  e8 bc 3e 00 00           callq    0xfffd64b1

----------------
IN: 
0xfffd25f5:  48 89 d9                 movq     %rbx, %rcx

----------------
IN: 
0xfffd25f8:  48 89 df                 movq     %rbx, %rdi

----------------
IN: 
0xfffd25fb:  e8 4d d1 ff ff           callq    0xfffcf74d

----------------
IN: 
0xfffd2600:  48 89 c6                 movq     %rax, %rsi

----------------
IN: 
0xfffd2603:  e8 d3 fc ff ff           callq    0xfffd22db

----------------
IN: 
0xfffd22db:  55                       pushq    %rbp

----------------
IN: 
0xfffd22dc:  48 89 e5                 movq     %rsp, %rbp

----------------
IN: 
0xfffd22df:  41 54                    pushq    %r12

----------------
IN: 
0xfffd22e1:  49 89 fc                 movq     %rdi, %r12

----------------
IN: 
0xfffd22e4:  53                       pushq    %rbx

----------------
IN: 
0xfffd22e5:  48 89 f3                 movq     %rsi, %rbx

----------------
IN: 
0xfffd22e8:  48 83 ec 10              subq     $0x10, %rsp

----------------
IN: 
0xfffd22ec:  e8 db ff ff ff           callq    0xfffd22cc

----------------
IN: 
0xfffd22f1:  4c 8d 4d ea              leaq     -0x16(%rbp), %r9

----------------
IN: 
0xfffd22f5:  8d 43 06                 leal     6(%rbx), %eax

----------------
IN: 
0xfffd22f8:  31 d2                    xorl     %edx, %edx

----------------
IN: 
0xfffd22fa:  4c 89 cf                 movq     %r9, %rdi

----------------
IN: 
0xfffd22fd:  be 06 00 00 00           movl     $6, %esi

----------------
IN: 
0xfffd2302:  66 c7 45 ea fe 3c        movw     $0x3cfe, -0x16(%rbp)

----------------
IN: 
0xfffd2308:  88 45 ec                 movb     %al, -0x14(%rbp)

----------------
IN: 
0xfffd230b:  c6 45 ed ee              movb     $0xee, -0x13(%rbp)

----------------
IN: 
0xfffd230f:  66 c7 45 ee 00 00        movw     $0, -0x12(%rbp)

----------------
IN: 
0xfffd2315:  e8 f6 f8 ff ff           callq    0xfffd1c10

----------------
IN: 
0xfffd231a:  48 89 de                 movq     %rbx, %rsi

----------------
IN: 
0xfffd231d:  4c 89 e7                 movq     %r12, %rdi

----------------
IN: 
0xfffd2320:  0f b7 d0                 movzwl   %ax, %edx

----------------
IN: 
0xfffd2323:  e8 e8 f8 ff ff           callq    0xfffd1c10

----------------
IN: 
0xfffd2328:  48 83 ec 20              subq     $0x20, %rsp

----------------
IN: 
0xfffd232c:  4c 89 c9                 movq     %r9, %rcx

----------------
IN: 
0xfffd232f:  ba 06 00 00 00           movl     $6, %edx

----------------
IN: 
0xfffd2334:  66 89 45 ee              movw     %ax, -0x12(%rbp)

----------------
IN: 
0xfffd2338:  e8 80 b5 ff ff           callq    0xfffcd8bd

----------------
IN: 
0xfffd233d:  48 89 da                 movq     %rbx, %rdx

----------------
IN: 
0xfffd2340:  4c 89 e1                 movq     %r12, %rcx

----------------
IN: 
0xfffd2343:  e8 75 b5 ff ff           callq    0xfffcd8bd

----------------
IN: 
0xfffd2348:  48 83 c4 20              addq     $0x20, %rsp

----------------
IN: 
0xfffd234c:  48 8d 65 f0              leaq     -0x10(%rbp), %rsp

----------------
IN: 
0xfffd2350:  5b                       popq     %rbx

----------------
IN: 
0xfffd2351:  41 5c                    popq     %r12

----------------
IN: 
0xfffd2353:  5d                       popq     %rbp

----------------
IN: 
0xfffd2354:  c3                       retq     

----------------
IN: 
0xfffd2608:  48 81 c4 38 01 00 00     addq     $0x138, %rsp

----------------
IN: 
0xfffd260f:  5b                       popq     %rbx

----------------
IN: 
0xfffd2610:  5e                       popq     %rsi

----------------
IN: 
0xfffd2611:  5f                       popq     %rdi

----------------
IN: 
0xfffd2612:  5d                       popq     %rbp

----------------
IN: 
0xfffd2613:  c3                       retq     

----------------
IN: 
0xfffd469f:  41 80 fc 02              cmpb     $2, %r12b

----------------
IN: 
0xfffd46a3:  75 39                    jne      0xfffd46de

----------------
IN: 
0xfffd46de:  31 ff                    xorl     %edi, %edi

----------------
IN: 
0xfffd46e0:  e8 fc fb ff ff           callq    0xfffd42e1

----------------
IN: 
0xfffd42e1:  b0 01                    movb     $1, %al

----------------
IN: 
0xfffd42e3:  c3                       retq     

----------------
IN: 
0xfffd46e5:  84 c0                    testb    %al, %al

----------------
IN: 
0xfffd46e7:  74 0f                    je       0xfffd46f8

----------------
IN: 
0xfffd46e9:  48 8d 55 b1              leaq     -0x4f(%rbp), %rdx

----------------
IN: 
0xfffd46ed:  41 0f b6 fc              movzbl   %r12b, %edi

----------------
IN: 
0xfffd46f1:  31 f6                    xorl     %esi, %esi

----------------
IN: 
0xfffd46f3:  e8 e6 f8 ff ff           callq    0xfffd3fde

----------------
IN: 
0xfffd3fde:  55                       pushq    %rbp

----------------
IN: 
0xfffd3fdf:  48 89 e5                 movq     %rsp, %rbp

----------------
IN: 
0xfffd3fe2:  41 55                    pushq    %r13

----------------
IN: 
0xfffd3fe4:  49 89 d5                 movq     %rdx, %r13

----------------
IN: 
0xfffd3fe7:  41 54                    pushq    %r12

----------------
IN: 
0xfffd3fe9:  53                       pushq    %rbx

----------------
IN: 
0xfffd3fea:  89 fb                    movl     %edi, %ebx

----------------
IN: 
0xfffd3fec:  48 83 ec 28              subq     $0x28, %rsp

----------------
IN: 
0xfffd3ff0:  89 75 cc                 movl     %esi, -0x34(%rbp)

----------------
IN: 
0xfffd3ff3:  e8 d4 e2 ff ff           callq    0xfffd22cc

----------------
IN: 
0xfffd3ff8:  49 89 c4                 movq     %rax, %r12

----------------
IN: 
0xfffd3ffb:  e8 14 e6 ff ff           callq    0xfffd2614

----------------
IN: 
0xfffd2614:  55                       pushq    %rbp

----------------
IN: 
0xfffd2615:  bf 01 00 00 00           movl     $1, %edi

----------------
IN: 
0xfffd261a:  48 89 e5                 movq     %rsp, %rbp

----------------
IN: 
0xfffd261d:  e8 60 ff ff ff           callq    0xfffd2582

----------------
IN: 
0xfffd2622:  5d                       popq     %rbp

----------------
IN: 
0xfffd2623:  ff c8                    decl     %eax

----------------
IN: 
0xfffd2625:  0f 94 c0                 sete     %al

----------------
IN: 
0xfffd2628:  c3                       retq     

----------------
IN: 
0xfffd4000:  44 8b 45 cc              movl     -0x34(%rbp), %r8d

----------------
IN: 
0xfffd4004:  84 c0                    testb    %al, %al

----------------
IN: 
0xfffd4006:  74 37                    je       0xfffd403f

----------------
IN: 
0xfffd403f:  48 83 ec 20              subq     $0x20, %rsp

----------------
IN: 
0xfffd4043:  48 8d 15 fb 6b 00 00     leaq     0x6bfb(%rip), %rdx

----------------
IN: 
0xfffd404a:  b9 04 00 00 00           movl     $4, %ecx

----------------
IN: 
0xfffd404f:  e8 4d e5 ff ff           callq    0xfffd25a1

----------------
IN: 
0xfffd4054:  4c 8d 6d df              leaq     -0x21(%rbp), %r13

----------------
IN: 
0xfffd4058:  48 83 c4 20              addq     $0x20, %rsp

----------------
IN: 
0xfffd405c:  31 c9                    xorl     %ecx, %ecx

----------------
IN: 
0xfffd405e:  ba 01 00 00 00           movl     $1, %edx

----------------
IN: 
0xfffd4063:  4c 89 ee                 movq     %r13, %rsi

----------------
IN: 
0xfffd4066:  4c 89 e7                 movq     %r12, %rdi

----------------
IN: 
0xfffd4069:  e8 5d e3 ff ff           callq    0xfffd23cb

----------------
IN: 
0xfffd246b:  31 c0                    xorl     %eax, %eax

----------------
IN: 
0xfffd246d:  31 db                    xorl     %ebx, %ebx

----------------
IN: 
0xfffd246f:  45 31 e4                 xorl     %r12d, %r12d

----------------
IN: 
0xfffd2472:  89 45 cc                 movl     %eax, -0x34(%rbp)

----------------
IN: 
0xfffd2475:  44 89 e8                 movl     %r13d, %eax

----------------
IN: 
0xfffd2478:  45 31 f6                 xorl     %r14d, %r14d

----------------
IN: 
0xfffd247b:  d1 e8                    shrl     $1, %eax

----------------
IN: 
0xfffd247d:  48 89 45 b8              movq     %rax, -0x48(%rbp)

----------------
IN: 
0xfffd2481:  48 83 ec 20              subq     $0x20, %rsp

----------------
IN: 
0xfffd2485:  b9 fd 03 00 00           movl     $0x3fd, %ecx

----------------
IN: 
0xfffd248a:  e8 59 b3 ff ff           callq    0xfffcd7e8

----------------
IN: 
0xfffd248f:  48 83 c4 20              addq     $0x20, %rsp

----------------
IN: 
0xfffd2493:  a8 01                    testb    $1, %al

----------------
IN: 
0xfffd2495:  74 43                    je       0xfffd24da

----------------
IN: 
0xfffd24da:  4d 85 ff                 testq    %r15, %r15

----------------
IN: 
0xfffd24dd:  74 7f                    je       0xfffd255e

----------------
IN: 
0xfffd255e:  48 8b 45 a8              movq     -0x58(%rbp), %rax

----------------
IN: 
0xfffd2562:  49 39 c6                 cmpq     %rax, %r14

----------------
IN: 
0xfffd2565:  0f 82 16 ff ff ff        jb       0xfffd2481

